
Flash_KL36_20201030.elf:     file format elf32-littlearm
Flash_KL36_20201030.elf
architecture: arm, flags 0x00000112:
EXEC_P, HAS_SYMS, D_PAGED
start address 0x00006c59

Program Header:
    LOAD off    0x00000000 vaddr 0x00000000 paddr 0x00000000 align 2**16
         filesz 0x000068c0 memsz 0x000068c0 flags r--
    LOAD off    0x00006c00 vaddr 0x00006c00 paddr 0x00006c00 align 2**16
         filesz 0x00000010 memsz 0x00000010 flags r--
    LOAD off    0x00006c10 vaddr 0x00006c10 paddr 0x00006c10 align 2**16
         filesz 0x00002f90 memsz 0x00002f90 flags rwx
    LOAD off    0x00010400 vaddr 0x20000400 paddr 0x00009ba0 align 2**16
         filesz 0x00000008 memsz 0x00000b38 flags rw-
private flags = 5000200: [Version5 EABI] [soft-float ABI]

Sections:
Idx Name            Size      VMA       LMA       File off  Algn  Flags
  0 .interrupts     000000c0  00006800  00006800  00006800  2**2  CONTENTS, ALLOC, LOAD, READONLY, DATA
  1 .flash_config   00000010  00006c00  00006c00  00006c00  2**0  CONTENTS, ALLOC, LOAD, READONLY, DATA
  2 .text           00002f80  00006c10  00006c10  00006c10  2**2  CONTENTS, ALLOC, LOAD, READONLY, CODE
  3 .ARM            00000008  00009b90  00009b90  00009b90  2**2  CONTENTS, ALLOC, LOAD, READONLY, DATA
  4 .init_array     00000004  00009b98  00009b98  00009b98  2**2  CONTENTS, ALLOC, LOAD, DATA
  5 .fini_array     00000004  00009b9c  00009b9c  00009b9c  2**2  CONTENTS, ALLOC, LOAD, DATA
  6 .mtb            00000000  20000400  20000400  00010408  2**0  CONTENTS
  7 .data           00000008  20000400  00009ba0  00010400  2**2  CONTENTS, ALLOC, LOAD, DATA
  8 .bss            00000830  20000408  00009ba8  00010408  2**2  ALLOC
  9 .heap           00000200  20000c38  0000a3d8  00010408  2**0  ALLOC
 10 .stack          00000100  20000e38  0000a5d8  00010408  2**0  ALLOC
 11 .ARM.attributes 00000028  00000000  00000000  00010408  2**0  CONTENTS, READONLY
 12 .debug_info     00008efd  00000000  00000000  00010430  2**0  CONTENTS, READONLY, DEBUGGING
 13 .debug_abbrev   00001b35  00000000  00000000  0001932d  2**0  CONTENTS, READONLY, DEBUGGING
 14 .debug_loc      0000282f  00000000  00000000  0001ae62  2**0  CONTENTS, READONLY, DEBUGGING
 15 .debug_aranges  00000300  00000000  00000000  0001d698  2**3  CONTENTS, READONLY, DEBUGGING
 16 .debug_ranges   00000230  00000000  00000000  0001d998  2**0  CONTENTS, READONLY, DEBUGGING
 17 .debug_macro    0000f4dd  00000000  00000000  0001dbc8  2**0  CONTENTS, READONLY, DEBUGGING
 18 .debug_line     00003608  00000000  00000000  0002d0a5  2**0  CONTENTS, READONLY, DEBUGGING
 19 .debug_str      0004ed83  00000000  00000000  000306ad  2**0  CONTENTS, READONLY, DEBUGGING
 20 .comment        0000007e  00000000  00000000  0007f430  2**0  CONTENTS, READONLY
 21 .debug_frame    00000970  00000000  00000000  0007f4b0  2**2  CONTENTS, READONLY, DEBUGGING
SYMBOL TABLE:
00006800 l    d  .interrupts	00000000 .interrupts
00006c00 l    d  .flash_config	00000000 .flash_config
00006c10 l    d  .text	00000000 .text
00009b90 l    d  .ARM	00000000 .ARM
00009b98 l    d  .init_array	00000000 .init_array
00009b9c l    d  .fini_array	00000000 .fini_array
20000400 l    d  .mtb	00000000 .mtb
20000400 l    d  .data	00000000 .data
20000408 l    d  .bss	00000000 .bss
20000c38 l    d  .heap	00000000 .heap
20000e38 l    d  .stack	00000000 .stack
00000000 l    d  .ARM.attributes	00000000 .ARM.attributes
00000000 l    d  .debug_info	00000000 .debug_info
00000000 l    d  .debug_abbrev	00000000 .debug_abbrev
00000000 l    d  .debug_loc	00000000 .debug_loc
00000000 l    d  .debug_aranges	00000000 .debug_aranges
00000000 l    d  .debug_ranges	00000000 .debug_ranges
00000000 l    d  .debug_macro	00000000 .debug_macro
00000000 l    d  .debug_line	00000000 .debug_line
00000000 l    d  .debug_str	00000000 .debug_str
00000000 l    d  .comment	00000000 .comment
00000000 l    d  .debug_frame	00000000 .debug_frame
00000000 l    df *ABS*	00000000 ./obj/startup_MKL36Z4.o
00000000 l    df *ABS*	00000000 crtstuff.c
00009b78 l     O .text	00000000 __EH_FRAME_BEGIN__
00006c10 l     F .text	00000000 __do_global_dtors_aux
20000408 l       .bss	00000001 completed.8654
00009b9c l     O .fini_array	00000000 __do_global_dtors_aux_fini_array_entry
00006c38 l     F .text	00000000 frame_dummy
2000040c l       .bss	00000018 object.8659
00009b98 l     O .init_array	00000000 __frame_dummy_init_array_entry
00000000 l    df *ABS*	00000000 _udivsi3.o
00006ca8 l       .text	00000000 .udivsi3_skip_div0_test
00000000 l    df *ABS*	00000000 _divsi3.o
00006dbc l       .text	00000000 .divsi3_skip_div0_test
00000000 l    df *ABS*	00000000 _dvmd_tls.o
00000000 l    df *ABS*	00000000 _arm_cmpdf2.o
00000000 l    df *ABS*	00000000 _aeabi_uldivmod.o
00000000 l    df *ABS*	00000000 libgcc2.c
00000000 l    df *ABS*	00000000 libgcc2.c
00000000 l    df *ABS*	00000000 libgcc2.c
00000000 l    df *ABS*	00000000 eqdf2.c
00000000 l    df *ABS*	00000000 gedf2.c
00000000 l    df *ABS*	00000000 ledf2.c
00000000 l    df *ABS*	00000000 muldf3.c
00000000 l    df *ABS*	00000000 subdf3.c
00000000 l    df *ABS*	00000000 fixdfsi.c
00000000 l    df *ABS*	00000000 floatunsidf.c
00000000 l    df *ABS*	00000000 _clzsi2.o
00000000 l    df *ABS*	00000000 _clzdi2.o
00000000 l    df *ABS*	00000000 lib_a-strcmp.o
00000000 l    df *ABS*	00000000 lib_a-strlen.o
00000000 l    df *ABS*	00000000 emuart.c
20000424 l     O .bss	00000002 index.5048
20000426 l     O .bss	00000002 length.5049
20000400 l     O .data	00000001 UART_NO
00000000 l    df *ABS*	00000000 system_MKL36Z4.c
00000000 l    df *ABS*	00000000 systick.c
00000000 l    df *ABS*	00000000 main.c
00000000 l    df *ABS*	00000000 flash.c
00000000 l    df *ABS*	00000000 gpio.c
00000000 l    df *ABS*	00000000 wdog.c
00000000 l    df *ABS*	00000000 gec.c
00000000 l    df *ABS*	00000000 uart.c
00000000 l    df *ABS*	00000000 isr.c
20000428 l     O .bss	00000001 SysTickCount.5138
00000000 l    df *ABS*	00000000 printf.c
00008dfc l     F .text	0000002a printk_putc
00008e26 l     F .text	00000084 printk_mknumstr
00008eaa l     F .text	0000001e printk_pad_zero
00008ec8 l     F .text	0000001e printk_pad_space
00000000 l    df *ABS*	00000000 memcpy-stub.c
00000000 l    df *ABS*	00000000 memset.c
00000000 l    df *ABS*	00000000 strncmp.c
00000000 l    df *ABS*	00000000 d:/ahl-gec-ide(4.11)/gcc/bin/../lib/gcc/arm-none-eabi/7.2.1/thumb/v6-m/crti.o
00000000 l    df *ABS*	00000000 d:/ahl-gec-ide(4.11)/gcc/bin/../lib/gcc/arm-none-eabi/7.2.1/thumb/v6-m/crtn.o
00000000 l    df *ABS*	00000000 
00009b9c l       .init_array	00000000 __init_array_end
00009b98 l       .init_array	00000000 __preinit_array_end
00009b98 l       .init_array	00000000 __init_array_start
00009b98 l       .init_array	00000000 __preinit_array_start
000085bc g     F .text	0000005c flash_write
20000c38 g       .heap	00000000 __HeapBase
00006fd4 g     F .text	00000012 .hidden __aeabi_dcmple
000084ea g     F .text	00000008 flash_read_physical
0000724c g     F .text	00000078 .hidden __eqdf2
20000400 g       .data	00000000 __data_start__
00000100 g       *ABS*	00000000 STACK_SIZE
00006ca0  w    F .text	00000006 I2C0_IRQHandler
0000003e g       *ABS*	00000000 GEC_USER_SECTOR_END
00006ca0  w    F .text	00000006 HardFault_Handler
00008dd0 g     F .text	0000002c SysTick_Handler
00006ca0  w    F .text	00000006 PendSV_Handler
00006ca0  w    F .text	00000006 NMI_Handler
00009b98 g       .ARM	00000000 __exidx_end
00006ca0  w    F .text	00000006 PORTC_PORTD_IRQHandler
00008998 g     F .text	00000034 uart_sendN
00006ca0  w    F .text	00000006 I2C1_IRQHandler
00006ca0  w    F .text	00000006 UART1_IRQHandler
000072c4 g     F .text	000000c8 .hidden __gtdf2
00009ba0 g       .fini_array	00000000 __etext
00006ca0  w    F .text	00000006 DMA2_IRQHandler
00006ca0  w    F .text	00000006 TPM0_IRQHandler
00006fa4 g     F .text	00000010 .hidden __aeabi_cdcmple
00006ca0  w    F .text	00000006 I2S0_IRQHandler
00006ca0  w    F .text	00000006 LLWU_IRQHandler
00008744 g     F .text	00000018 wdog_feed
0000001a g       *ABS*	00000000 GEC_USER_SECTOR_START
00006ca0  w    F .text	00000006 TSI0_IRQHandler
00008a60 g     F .text	0000033c UART0_IRQHandler
00009600 g     F .text	00000012 memcpy
00006f94 g     F .text	00000020 .hidden __aeabi_cdrcmple
0000738c g     F .text	000000d0 .hidden __ltdf2
00009b98 g       .init_array	00000000 __DTOR_END__
00007010 g     F .text	0000003e .hidden __aeabi_uldivmod
20000404 g     O .data	00000004 SystemCoreClock
00006ca0  w    F .text	00000006 ADC0_IRQHandler
00006ca8 g     F .text	0000010a .hidden __udivsi3
20000408 g       .bss	00000000 __START_BSS
00007050 g     F .text	0000003c .hidden __fixunsdfsi
20000e38 g       .heap	00000000 __HeapLimit
20000408 g       .bss	00000000 __bss_start__
00008554 g     F .text	00000068 flash_erase
0000803c g     F .text	00000064 .hidden __aeabi_ui2d
00006ca0  w    F .text	00000006 SPI1_IRQHandler
000070c8 g     F .text	00000182 .hidden __udivmoddi4
00006ca0  w    F .text	00000006 DefaultISR
00006fc0 g     F .text	00000012 .hidden __aeabi_dcmplt
00009b90 g       .ARM	00000000 __exidx_start
0000745c g     F .text	000004e4 .hidden __aeabi_dmul
00008ef4 g     F .text	00000188 printk_mkfloatstr
00009b78 g     F .text	00000000 _init
00006ca0  w    F .text	00000006 TPM2_IRQHandler
0000708c g     F .text	0000003c .hidden __aeabi_d2ulz
00006ca0  w    F .text	00000006 RTC_IRQHandler
000098cc g     O .text	00000014 PORT_ARR
00000400 g       *ABS*	00000000 MCU_SECTORSIZE
00006c58  w    F .text	00000048 Reset_Handler
00006ca0  w    F .text	00000006 LCD_IRQHandler
0000738c g     F .text	000000d0 .hidden __ledf2
200017ff g       *ABS*	00000000 GEC_USER_RAM_END
000095dc g     F .text	00000024 myprintf
00006ca0  w    F .text	00000006 RTC_Seconds_IRQHandler
00006dbc g     F .text	00000000 .hidden __aeabi_idiv
00006ca0  w    F .text	00000006 MCG_IRQHandler
000089cc g     F .text	0000002a uart_send_string
00006ca0  w    F .text	00000006 UART2_IRQHandler
20000408 g       .data	00000000 __data_end__
00009b98 g       .init_array	00000000 __CTOR_LIST__
00000200 g       *ABS*	00000000 HEAP_SIZE
00006fe8 g     F .text	00000012 .hidden __aeabi_dcmpgt
000080a0 g     F .text	0000003c .hidden __clzsi2
000087f4 g     F .text	00000148 uart_init
20000c38 g       .bss	00000000 __bss_end__
00006ca0  w    F .text	00000006 Reserved20_IRQHandler
00006ffc g     F .text	00000012 .hidden __aeabi_dcmpge
00008510 g     F .text	00000044 flash_cmd_launch
2000042c g     O .bss	00000003 gTime
00007940 g     F .text	00000690 .hidden __aeabi_dsub
000081d4 g     F .text	000000ec emuart_recv
20000430 g     O .bss	00000004 component_fun
20000400 g       *ABS*	00000000 GEC_USER_RAM_START
00009622 g     F .text	00000022 strncmp
00009928 g     O .text	00000008 UART_ARR
00008384 g     F .text	0000004c systick_init
00008118 g     F .text	00000040 crc16
00008ee6 g     F .text	0000000c out_char
0000907c g     F .text	0000055e printk
00006f90  w    F .text	00000002 .hidden __aeabi_ldiv0
000084dc g     F .text	0000000e flash_read_logic
000089f8 g     F .text	00000068 uart_re1
00008158 g     F .text	00000064 sendFrame
00009612 g     F .text	00000010 memset
00006800 g       .interrupts	000000c0 __isr_vector
000083d0 g     F .text	0000010c main
00006ca0  w    F .text	00000006 PIT_IRQHandler
00006ca8 g     F .text	00000000 .hidden __aeabi_uidiv
00006ca0  w    F .text	00000006 SVC_Handler
20000400 g       .data	00000000 __DATA_RAM
0000866c g     F .text	00000008 gpio_get_port_pin
20000c38 g       .heap	00000000 __end__
00006dbc g     F .text	000001cc .hidden __divsi3
00009b98 g       .init_array	00000000 __CTOR_END__
00008d9c g     F .text	00000032 SecAdd1
00006ca0  w    F .text	00000006 DMA3_IRQHandler
000080f4 g     F .text	00000014 strcmp
00009b98 g       .init_array	00000000 __DTOR_LIST__
20000c38 g       .bss	00000000 __END_BSS
000082c0 g     F .text	000000c4 SystemInit
00006ca0  w    F .text	00000006 DMA0_IRQHandler
0000724c g     F .text	00000078 .hidden __nedf2
0000708c g     F .text	0000003c .hidden __fixunsdfdi
00009b84 g     F .text	00000000 _fini
00006ca0  w    F .text	00000006 DAC0_IRQHandler
20001800 g       .stack	00000000 __StackTop
20000434 g     O .bss	00000001 gcRecvLen
00008618 g     F .text	00000054 flash_write_physical
20000400 g       .mtb	00000000 _mtb_end
00009ba8 g       *ABS*	00000000 __DATA_END
000084f2 g     F .text	0000001e flash_isempty
00007050 g     F .text	0000003c .hidden __aeabi_d2uiz
00006ca0  w    F .text	00000006 TPM1_IRQHandler
0000875c g     F .text	0000008c Vectors_Init
20001800 g       *ABS*	00000000 __stack
00006db4 g     F .text	00000008 .hidden __aeabi_uidivmod
00006fb4 g     F .text	0000000c .hidden __aeabi_dcmpeq
000081bc g     F .text	00000018 emuart_send_string
00006ca0  w    F .text	00000006 LVD_LVW_IRQHandler
00006ca0  w    F .text	00000006 SPI0_IRQHandler
00006ca0  w    F .text	00000006 PORTA_IRQHandler
00006800 g       .interrupts	00000000 __VECTOR_TABLE
00009ba0 g       .fini_array	00000000 __DATA_ROM
20001700 g       *ABS*	00000000 __StackLimit
00006ca0  w    F .text	00000006 FTFA_IRQHandler
000098b8 g     O .text	00000014 GPIO_ARR
00007fd0 g     F .text	0000006c .hidden __aeabi_d2iz
20000400 g       .mtb	00000000 _mtb_start
00006ca0  w    F .text	00000006 Reserved40_IRQHandler
00006f90  w    F .text	00000002 .hidden __aeabi_idiv0
00006ca0  w    F .text	00000006 LPTMR0_IRQHandler
00008108 g     F .text	0000000e strlen
00006fa4 g     F .text	00000010 .hidden __aeabi_cdcmpeq
000072c4 g     F .text	000000c8 .hidden __gedf2
0000893c g     F .text	0000005c uart_send1
00008730 g     F .text	00000014 wdog_stop
000087e8 g     F .text	0000000c uart_is_uartNo
00008674 g     F .text	00000044 gpio_set
000086b8 g     F .text	00000078 gpio_init
000080dc g     F .text	00000016 .hidden __clzdi2
00006ca0  w    F .text	00000006 CMP0_IRQHandler
00006f88 g     F .text	00000008 .hidden __aeabi_idivmod
20000438 g     O .bss	00000800 gcRecvBuf
00000000 g       *ABS*	00000000 MCU_FLASH_ADDR_START
00006ca0  w    F .text	00000006 DMA1_IRQHandler



Disassembly of section .text:

00006c10 <__do_global_dtors_aux>:
__do_global_dtors_aux():
    6c10:	b510      	push	{r4, lr}
    6c12:	4c06      	ldr	r4, [pc, #24]	; (6c2c <__do_global_dtors_aux+0x1c>)
    6c14:	7823      	ldrb	r3, [r4, #0]
    6c16:	2b00      	cmp	r3, #0
    6c18:	d107      	bne.n	6c2a <__do_global_dtors_aux+0x1a>
    6c1a:	4b05      	ldr	r3, [pc, #20]	; (6c30 <__do_global_dtors_aux+0x20>)
    6c1c:	2b00      	cmp	r3, #0
    6c1e:	d002      	beq.n	6c26 <__do_global_dtors_aux+0x16>
    6c20:	4804      	ldr	r0, [pc, #16]	; (6c34 <__do_global_dtors_aux+0x24>)
    6c22:	e000      	b.n	6c26 <__do_global_dtors_aux+0x16>
    6c24:	bf00      	nop
    6c26:	2301      	movs	r3, #1
    6c28:	7023      	strb	r3, [r4, #0]
    6c2a:	bd10      	pop	{r4, pc}
    6c2c:	20000408 	.word	0x20000408
    6c30:	00000000 	.word	0x00000000
    6c34:	00009b78 	.word	0x00009b78

00006c38 <frame_dummy>:
frame_dummy():
    6c38:	4b04      	ldr	r3, [pc, #16]	; (6c4c <frame_dummy+0x14>)
    6c3a:	b510      	push	{r4, lr}
    6c3c:	2b00      	cmp	r3, #0
    6c3e:	d003      	beq.n	6c48 <frame_dummy+0x10>
    6c40:	4903      	ldr	r1, [pc, #12]	; (6c50 <frame_dummy+0x18>)
    6c42:	4804      	ldr	r0, [pc, #16]	; (6c54 <frame_dummy+0x1c>)
    6c44:	e000      	b.n	6c48 <frame_dummy+0x10>
    6c46:	bf00      	nop
    6c48:	bd10      	pop	{r4, pc}
    6c4a:	46c0      	nop			; (mov r8, r8)
    6c4c:	00000000 	.word	0x00000000
    6c50:	2000040c 	.word	0x2000040c
    6c54:	00009b78 	.word	0x00009b78

00006c58 <Reset_Handler>:
Reset_Handler():
D:\Users\lihaifeng\Desktop\嵌入式\实验考核题目\1\Flash_KL36_20201030\Debug/srcs/startup_MKL36Z4.S:118
    .align 2
    .globl   Reset_Handler
    .weak    Reset_Handler
    .type    Reset_Handler, %function
Reset_Handler:
    cpsid   i               /* Mask interrupts */
    6c58:	b672      	cpsid	i
D:\Users\lihaifeng\Desktop\嵌入式\实验考核题目\1\Flash_KL36_20201030\Debug/srcs/startup_MKL36Z4.S:120
#ifndef __NO_SYSTEM_INIT
    bl SystemInit
    6c5a:	f001 fb31 	bl	82c0 <SystemInit>
D:\Users\lihaifeng\Desktop\嵌入式\实验考核题目\1\Flash_KL36_20201030\Debug/srcs/startup_MKL36Z4.S:122
#endif
    cpsie   i               /* Unmask interrupts */
    6c5e:	b662      	cpsie	i
D:\Users\lihaifeng\Desktop\嵌入式\实验考核题目\1\Flash_KL36_20201030\Debug/srcs/startup_MKL36Z4.S:130
 *      linker script.
 *      __etext: End of code section, i.e., begin of data sections to copy from.
 *      __data_start__/__data_end__: RAM address range that data should be
 *      copied to. Both must be aligned to 4 bytes boundary.  */

    ldr    r1, =__etext
    6c60:	490a      	ldr	r1, [pc, #40]	; (6c8c <Reset_Handler+0x34>)
D:\Users\lihaifeng\Desktop\嵌入式\实验考核题目\1\Flash_KL36_20201030\Debug/srcs/startup_MKL36Z4.S:131
    ldr    r2, =__data_start__
    6c62:	4a0b      	ldr	r2, [pc, #44]	; (6c90 <Reset_Handler+0x38>)
D:\Users\lihaifeng\Desktop\嵌入式\实验考核题目\1\Flash_KL36_20201030\Debug/srcs/startup_MKL36Z4.S:132
    ldr    r3, =__data_end__
    6c64:	4b0b      	ldr	r3, [pc, #44]	; (6c94 <Reset_Handler+0x3c>)
D:\Users\lihaifeng\Desktop\嵌入式\实验考核题目\1\Flash_KL36_20201030\Debug/srcs/startup_MKL36Z4.S:134

    subs    r3, r2
    6c66:	1a9b      	subs	r3, r3, r2
D:\Users\lihaifeng\Desktop\嵌入式\实验考核题目\1\Flash_KL36_20201030\Debug/srcs/startup_MKL36Z4.S:135
    ble     .LC0
    6c68:	dd03      	ble.n	6c72 <Reset_Handler+0x1a>
D:\Users\lihaifeng\Desktop\嵌入式\实验考核题目\1\Flash_KL36_20201030\Debug/srcs/startup_MKL36Z4.S:138

.LC1:
    subs    r3, 4
    6c6a:	3b04      	subs	r3, #4
D:\Users\lihaifeng\Desktop\嵌入式\实验考核题目\1\Flash_KL36_20201030\Debug/srcs/startup_MKL36Z4.S:139
    ldr    r0, [r1,r3]
    6c6c:	58c8      	ldr	r0, [r1, r3]
D:\Users\lihaifeng\Desktop\嵌入式\实验考核题目\1\Flash_KL36_20201030\Debug/srcs/startup_MKL36Z4.S:140
    str    r0, [r2,r3]
    6c6e:	50d0      	str	r0, [r2, r3]
D:\Users\lihaifeng\Desktop\嵌入式\实验考核题目\1\Flash_KL36_20201030\Debug/srcs/startup_MKL36Z4.S:141
    bgt    .LC1
    6c70:	dcfb      	bgt.n	6c6a <Reset_Handler+0x12>
D:\Users\lihaifeng\Desktop\嵌入式\实验考核题目\1\Flash_KL36_20201030\Debug/srcs/startup_MKL36Z4.S:154
 *     Loop to zero out BSS section, which uses following symbols
 *     in linker script:
 *      __bss_start__: start of BSS section. Must align to 4
 *      __bss_end__: end of BSS section. Must align to 4
 */
    ldr r1, =__bss_start__
    6c72:	4909      	ldr	r1, [pc, #36]	; (6c98 <Reset_Handler+0x40>)
D:\Users\lihaifeng\Desktop\嵌入式\实验考核题目\1\Flash_KL36_20201030\Debug/srcs/startup_MKL36Z4.S:155
    ldr r2, =__bss_end__
    6c74:	4a09      	ldr	r2, [pc, #36]	; (6c9c <Reset_Handler+0x44>)
D:\Users\lihaifeng\Desktop\嵌入式\实验考核题目\1\Flash_KL36_20201030\Debug/srcs/startup_MKL36Z4.S:157

    subs    r2, r1
    6c76:	1a52      	subs	r2, r2, r1
D:\Users\lihaifeng\Desktop\嵌入式\实验考核题目\1\Flash_KL36_20201030\Debug/srcs/startup_MKL36Z4.S:158
    ble .LC3
    6c78:	dd03      	ble.n	6c82 <Reset_Handler+0x2a>
D:\Users\lihaifeng\Desktop\嵌入式\实验考核题目\1\Flash_KL36_20201030\Debug/srcs/startup_MKL36Z4.S:160

    movs    r0, 0
    6c7a:	2000      	movs	r0, #0
D:\Users\lihaifeng\Desktop\嵌入式\实验考核题目\1\Flash_KL36_20201030\Debug/srcs/startup_MKL36Z4.S:162
.LC2:
    str r0, [r1, r2]
    6c7c:	5088      	str	r0, [r1, r2]
D:\Users\lihaifeng\Desktop\嵌入式\实验考核题目\1\Flash_KL36_20201030\Debug/srcs/startup_MKL36Z4.S:163
    subs    r2, 4
    6c7e:	3a04      	subs	r2, #4
D:\Users\lihaifeng\Desktop\嵌入式\实验考核题目\1\Flash_KL36_20201030\Debug/srcs/startup_MKL36Z4.S:164
    bge .LC2
    6c80:	dafc      	bge.n	6c7c <Reset_Handler+0x24>
D:\Users\lihaifeng\Desktop\嵌入式\实验考核题目\1\Flash_KL36_20201030\Debug/srcs/startup_MKL36Z4.S:173
#define __START _start
#endif


/*【User程序修改处1】*/
	bl	 Vectors_Init  
    6c82:	f001 fd6b 	bl	875c <Vectors_Init>
D:\Users\lihaifeng\Desktop\嵌入式\实验考核题目\1\Flash_KL36_20201030\Debug/srcs/startup_MKL36Z4.S:175
  //  bl    __START
   bl main
    6c86:	f001 fba3 	bl	83d0 <main>
    6c8a:	0000      	.short	0x0000
D:\Users\lihaifeng\Desktop\嵌入式\实验考核题目\1\Flash_KL36_20201030\Debug/srcs/startup_MKL36Z4.S:130
    ldr    r1, =__etext
    6c8c:	00009ba0 	.word	0x00009ba0
D:\Users\lihaifeng\Desktop\嵌入式\实验考核题目\1\Flash_KL36_20201030\Debug/srcs/startup_MKL36Z4.S:131
    ldr    r2, =__data_start__
    6c90:	20000400 	.word	0x20000400
D:\Users\lihaifeng\Desktop\嵌入式\实验考核题目\1\Flash_KL36_20201030\Debug/srcs/startup_MKL36Z4.S:132
    ldr    r3, =__data_end__
    6c94:	20000408 	.word	0x20000408
D:\Users\lihaifeng\Desktop\嵌入式\实验考核题目\1\Flash_KL36_20201030\Debug/srcs/startup_MKL36Z4.S:154
    ldr r1, =__bss_start__
    6c98:	20000408 	.word	0x20000408
D:\Users\lihaifeng\Desktop\嵌入式\实验考核题目\1\Flash_KL36_20201030\Debug/srcs/startup_MKL36Z4.S:155
    ldr r2, =__bss_end__
    6c9c:	20000c38 	.word	0x20000c38

00006ca0 <ADC0_IRQHandler>:
DMA1_IRQHandler():
D:\Users\lihaifeng\Desktop\嵌入式\实验考核题目\1\Flash_KL36_20201030\Debug/srcs/startup_MKL36Z4.S:186
    .weak DefaultISR
    .type DefaultISR, %function
DefaultISR:    
    //ldr	r0, =DefaultISR   //误中断，进入无限循环
    //bx r0
       push  {lr}        //【20200326】WYH改，误中断，回原处
    6ca0:	b500      	push	{lr}
D:\Users\lihaifeng\Desktop\嵌入式\实验考核题目\1\Flash_KL36_20201030\Debug/srcs/startup_MKL36Z4.S:187
       nop
    6ca2:	46c0      	nop			; (mov r8, r8)
D:\Users\lihaifeng\Desktop\嵌入式\实验考核题目\1\Flash_KL36_20201030\Debug/srcs/startup_MKL36Z4.S:188
       pop   {pc}
    6ca4:	bd00      	pop	{pc}
    6ca6:	46c0      	nop			; (mov r8, r8)

00006ca8 <__udivsi3>:
__aeabi_uidiv():
    6ca8:	2200      	movs	r2, #0
    6caa:	0843      	lsrs	r3, r0, #1
    6cac:	428b      	cmp	r3, r1
    6cae:	d374      	bcc.n	6d9a <__udivsi3+0xf2>
    6cb0:	0903      	lsrs	r3, r0, #4
    6cb2:	428b      	cmp	r3, r1
    6cb4:	d35f      	bcc.n	6d76 <__udivsi3+0xce>
    6cb6:	0a03      	lsrs	r3, r0, #8
    6cb8:	428b      	cmp	r3, r1
    6cba:	d344      	bcc.n	6d46 <__udivsi3+0x9e>
    6cbc:	0b03      	lsrs	r3, r0, #12
    6cbe:	428b      	cmp	r3, r1
    6cc0:	d328      	bcc.n	6d14 <__udivsi3+0x6c>
    6cc2:	0c03      	lsrs	r3, r0, #16
    6cc4:	428b      	cmp	r3, r1
    6cc6:	d30d      	bcc.n	6ce4 <__udivsi3+0x3c>
    6cc8:	22ff      	movs	r2, #255	; 0xff
    6cca:	0209      	lsls	r1, r1, #8
    6ccc:	ba12      	rev	r2, r2
    6cce:	0c03      	lsrs	r3, r0, #16
    6cd0:	428b      	cmp	r3, r1
    6cd2:	d302      	bcc.n	6cda <__udivsi3+0x32>
    6cd4:	1212      	asrs	r2, r2, #8
    6cd6:	0209      	lsls	r1, r1, #8
    6cd8:	d065      	beq.n	6da6 <__udivsi3+0xfe>
    6cda:	0b03      	lsrs	r3, r0, #12
    6cdc:	428b      	cmp	r3, r1
    6cde:	d319      	bcc.n	6d14 <__udivsi3+0x6c>
    6ce0:	e000      	b.n	6ce4 <__udivsi3+0x3c>
    6ce2:	0a09      	lsrs	r1, r1, #8
    6ce4:	0bc3      	lsrs	r3, r0, #15
    6ce6:	428b      	cmp	r3, r1
    6ce8:	d301      	bcc.n	6cee <__udivsi3+0x46>
    6cea:	03cb      	lsls	r3, r1, #15
    6cec:	1ac0      	subs	r0, r0, r3
    6cee:	4152      	adcs	r2, r2
    6cf0:	0b83      	lsrs	r3, r0, #14
    6cf2:	428b      	cmp	r3, r1
    6cf4:	d301      	bcc.n	6cfa <__udivsi3+0x52>
    6cf6:	038b      	lsls	r3, r1, #14
    6cf8:	1ac0      	subs	r0, r0, r3
    6cfa:	4152      	adcs	r2, r2
    6cfc:	0b43      	lsrs	r3, r0, #13
    6cfe:	428b      	cmp	r3, r1
    6d00:	d301      	bcc.n	6d06 <__udivsi3+0x5e>
    6d02:	034b      	lsls	r3, r1, #13
    6d04:	1ac0      	subs	r0, r0, r3
    6d06:	4152      	adcs	r2, r2
    6d08:	0b03      	lsrs	r3, r0, #12
    6d0a:	428b      	cmp	r3, r1
    6d0c:	d301      	bcc.n	6d12 <__udivsi3+0x6a>
    6d0e:	030b      	lsls	r3, r1, #12
    6d10:	1ac0      	subs	r0, r0, r3
    6d12:	4152      	adcs	r2, r2
    6d14:	0ac3      	lsrs	r3, r0, #11
    6d16:	428b      	cmp	r3, r1
    6d18:	d301      	bcc.n	6d1e <__udivsi3+0x76>
    6d1a:	02cb      	lsls	r3, r1, #11
    6d1c:	1ac0      	subs	r0, r0, r3
    6d1e:	4152      	adcs	r2, r2
    6d20:	0a83      	lsrs	r3, r0, #10
    6d22:	428b      	cmp	r3, r1
    6d24:	d301      	bcc.n	6d2a <__udivsi3+0x82>
    6d26:	028b      	lsls	r3, r1, #10
    6d28:	1ac0      	subs	r0, r0, r3
    6d2a:	4152      	adcs	r2, r2
    6d2c:	0a43      	lsrs	r3, r0, #9
    6d2e:	428b      	cmp	r3, r1
    6d30:	d301      	bcc.n	6d36 <__udivsi3+0x8e>
    6d32:	024b      	lsls	r3, r1, #9
    6d34:	1ac0      	subs	r0, r0, r3
    6d36:	4152      	adcs	r2, r2
    6d38:	0a03      	lsrs	r3, r0, #8
    6d3a:	428b      	cmp	r3, r1
    6d3c:	d301      	bcc.n	6d42 <__udivsi3+0x9a>
    6d3e:	020b      	lsls	r3, r1, #8
    6d40:	1ac0      	subs	r0, r0, r3
    6d42:	4152      	adcs	r2, r2
    6d44:	d2cd      	bcs.n	6ce2 <__udivsi3+0x3a>
    6d46:	09c3      	lsrs	r3, r0, #7
    6d48:	428b      	cmp	r3, r1
    6d4a:	d301      	bcc.n	6d50 <__udivsi3+0xa8>
    6d4c:	01cb      	lsls	r3, r1, #7
    6d4e:	1ac0      	subs	r0, r0, r3
    6d50:	4152      	adcs	r2, r2
    6d52:	0983      	lsrs	r3, r0, #6
    6d54:	428b      	cmp	r3, r1
    6d56:	d301      	bcc.n	6d5c <__udivsi3+0xb4>
    6d58:	018b      	lsls	r3, r1, #6
    6d5a:	1ac0      	subs	r0, r0, r3
    6d5c:	4152      	adcs	r2, r2
    6d5e:	0943      	lsrs	r3, r0, #5
    6d60:	428b      	cmp	r3, r1
    6d62:	d301      	bcc.n	6d68 <__udivsi3+0xc0>
    6d64:	014b      	lsls	r3, r1, #5
    6d66:	1ac0      	subs	r0, r0, r3
    6d68:	4152      	adcs	r2, r2
    6d6a:	0903      	lsrs	r3, r0, #4
    6d6c:	428b      	cmp	r3, r1
    6d6e:	d301      	bcc.n	6d74 <__udivsi3+0xcc>
    6d70:	010b      	lsls	r3, r1, #4
    6d72:	1ac0      	subs	r0, r0, r3
    6d74:	4152      	adcs	r2, r2
    6d76:	08c3      	lsrs	r3, r0, #3
    6d78:	428b      	cmp	r3, r1
    6d7a:	d301      	bcc.n	6d80 <__udivsi3+0xd8>
    6d7c:	00cb      	lsls	r3, r1, #3
    6d7e:	1ac0      	subs	r0, r0, r3
    6d80:	4152      	adcs	r2, r2
    6d82:	0883      	lsrs	r3, r0, #2
    6d84:	428b      	cmp	r3, r1
    6d86:	d301      	bcc.n	6d8c <__udivsi3+0xe4>
    6d88:	008b      	lsls	r3, r1, #2
    6d8a:	1ac0      	subs	r0, r0, r3
    6d8c:	4152      	adcs	r2, r2
    6d8e:	0843      	lsrs	r3, r0, #1
    6d90:	428b      	cmp	r3, r1
    6d92:	d301      	bcc.n	6d98 <__udivsi3+0xf0>
    6d94:	004b      	lsls	r3, r1, #1
    6d96:	1ac0      	subs	r0, r0, r3
    6d98:	4152      	adcs	r2, r2
    6d9a:	1a41      	subs	r1, r0, r1
    6d9c:	d200      	bcs.n	6da0 <__udivsi3+0xf8>
    6d9e:	4601      	mov	r1, r0
    6da0:	4152      	adcs	r2, r2
    6da2:	4610      	mov	r0, r2
    6da4:	4770      	bx	lr
    6da6:	e7ff      	b.n	6da8 <__udivsi3+0x100>
    6da8:	b501      	push	{r0, lr}
    6daa:	2000      	movs	r0, #0
    6dac:	f000 f8f0 	bl	6f90 <__aeabi_idiv0>
    6db0:	bd02      	pop	{r1, pc}
    6db2:	46c0      	nop			; (mov r8, r8)

00006db4 <__aeabi_uidivmod>:
__aeabi_uidivmod():
    6db4:	2900      	cmp	r1, #0
    6db6:	d0f7      	beq.n	6da8 <__udivsi3+0x100>
    6db8:	e776      	b.n	6ca8 <__udivsi3>
    6dba:	4770      	bx	lr

00006dbc <__divsi3>:
__divsi3():
    6dbc:	4603      	mov	r3, r0
    6dbe:	430b      	orrs	r3, r1
    6dc0:	d47f      	bmi.n	6ec2 <__divsi3+0x106>
    6dc2:	2200      	movs	r2, #0
    6dc4:	0843      	lsrs	r3, r0, #1
    6dc6:	428b      	cmp	r3, r1
    6dc8:	d374      	bcc.n	6eb4 <__divsi3+0xf8>
    6dca:	0903      	lsrs	r3, r0, #4
    6dcc:	428b      	cmp	r3, r1
    6dce:	d35f      	bcc.n	6e90 <__divsi3+0xd4>
    6dd0:	0a03      	lsrs	r3, r0, #8
    6dd2:	428b      	cmp	r3, r1
    6dd4:	d344      	bcc.n	6e60 <__divsi3+0xa4>
    6dd6:	0b03      	lsrs	r3, r0, #12
    6dd8:	428b      	cmp	r3, r1
    6dda:	d328      	bcc.n	6e2e <__divsi3+0x72>
    6ddc:	0c03      	lsrs	r3, r0, #16
    6dde:	428b      	cmp	r3, r1
    6de0:	d30d      	bcc.n	6dfe <__divsi3+0x42>
    6de2:	22ff      	movs	r2, #255	; 0xff
    6de4:	0209      	lsls	r1, r1, #8
    6de6:	ba12      	rev	r2, r2
    6de8:	0c03      	lsrs	r3, r0, #16
    6dea:	428b      	cmp	r3, r1
    6dec:	d302      	bcc.n	6df4 <__divsi3+0x38>
    6dee:	1212      	asrs	r2, r2, #8
    6df0:	0209      	lsls	r1, r1, #8
    6df2:	d065      	beq.n	6ec0 <__divsi3+0x104>
    6df4:	0b03      	lsrs	r3, r0, #12
    6df6:	428b      	cmp	r3, r1
    6df8:	d319      	bcc.n	6e2e <__divsi3+0x72>
    6dfa:	e000      	b.n	6dfe <__divsi3+0x42>
    6dfc:	0a09      	lsrs	r1, r1, #8
    6dfe:	0bc3      	lsrs	r3, r0, #15
    6e00:	428b      	cmp	r3, r1
    6e02:	d301      	bcc.n	6e08 <__divsi3+0x4c>
    6e04:	03cb      	lsls	r3, r1, #15
    6e06:	1ac0      	subs	r0, r0, r3
    6e08:	4152      	adcs	r2, r2
    6e0a:	0b83      	lsrs	r3, r0, #14
    6e0c:	428b      	cmp	r3, r1
    6e0e:	d301      	bcc.n	6e14 <__divsi3+0x58>
    6e10:	038b      	lsls	r3, r1, #14
    6e12:	1ac0      	subs	r0, r0, r3
    6e14:	4152      	adcs	r2, r2
    6e16:	0b43      	lsrs	r3, r0, #13
    6e18:	428b      	cmp	r3, r1
    6e1a:	d301      	bcc.n	6e20 <__divsi3+0x64>
    6e1c:	034b      	lsls	r3, r1, #13
    6e1e:	1ac0      	subs	r0, r0, r3
    6e20:	4152      	adcs	r2, r2
    6e22:	0b03      	lsrs	r3, r0, #12
    6e24:	428b      	cmp	r3, r1
    6e26:	d301      	bcc.n	6e2c <__divsi3+0x70>
    6e28:	030b      	lsls	r3, r1, #12
    6e2a:	1ac0      	subs	r0, r0, r3
    6e2c:	4152      	adcs	r2, r2
    6e2e:	0ac3      	lsrs	r3, r0, #11
    6e30:	428b      	cmp	r3, r1
    6e32:	d301      	bcc.n	6e38 <__divsi3+0x7c>
    6e34:	02cb      	lsls	r3, r1, #11
    6e36:	1ac0      	subs	r0, r0, r3
    6e38:	4152      	adcs	r2, r2
    6e3a:	0a83      	lsrs	r3, r0, #10
    6e3c:	428b      	cmp	r3, r1
    6e3e:	d301      	bcc.n	6e44 <__divsi3+0x88>
    6e40:	028b      	lsls	r3, r1, #10
    6e42:	1ac0      	subs	r0, r0, r3
    6e44:	4152      	adcs	r2, r2
    6e46:	0a43      	lsrs	r3, r0, #9
    6e48:	428b      	cmp	r3, r1
    6e4a:	d301      	bcc.n	6e50 <__divsi3+0x94>
    6e4c:	024b      	lsls	r3, r1, #9
    6e4e:	1ac0      	subs	r0, r0, r3
    6e50:	4152      	adcs	r2, r2
    6e52:	0a03      	lsrs	r3, r0, #8
    6e54:	428b      	cmp	r3, r1
    6e56:	d301      	bcc.n	6e5c <__divsi3+0xa0>
    6e58:	020b      	lsls	r3, r1, #8
    6e5a:	1ac0      	subs	r0, r0, r3
    6e5c:	4152      	adcs	r2, r2
    6e5e:	d2cd      	bcs.n	6dfc <__divsi3+0x40>
    6e60:	09c3      	lsrs	r3, r0, #7
    6e62:	428b      	cmp	r3, r1
    6e64:	d301      	bcc.n	6e6a <__divsi3+0xae>
    6e66:	01cb      	lsls	r3, r1, #7
    6e68:	1ac0      	subs	r0, r0, r3
    6e6a:	4152      	adcs	r2, r2
    6e6c:	0983      	lsrs	r3, r0, #6
    6e6e:	428b      	cmp	r3, r1
    6e70:	d301      	bcc.n	6e76 <__divsi3+0xba>
    6e72:	018b      	lsls	r3, r1, #6
    6e74:	1ac0      	subs	r0, r0, r3
    6e76:	4152      	adcs	r2, r2
    6e78:	0943      	lsrs	r3, r0, #5
    6e7a:	428b      	cmp	r3, r1
    6e7c:	d301      	bcc.n	6e82 <__divsi3+0xc6>
    6e7e:	014b      	lsls	r3, r1, #5
    6e80:	1ac0      	subs	r0, r0, r3
    6e82:	4152      	adcs	r2, r2
    6e84:	0903      	lsrs	r3, r0, #4
    6e86:	428b      	cmp	r3, r1
    6e88:	d301      	bcc.n	6e8e <__divsi3+0xd2>
    6e8a:	010b      	lsls	r3, r1, #4
    6e8c:	1ac0      	subs	r0, r0, r3
    6e8e:	4152      	adcs	r2, r2
    6e90:	08c3      	lsrs	r3, r0, #3
    6e92:	428b      	cmp	r3, r1
    6e94:	d301      	bcc.n	6e9a <__divsi3+0xde>
    6e96:	00cb      	lsls	r3, r1, #3
    6e98:	1ac0      	subs	r0, r0, r3
    6e9a:	4152      	adcs	r2, r2
    6e9c:	0883      	lsrs	r3, r0, #2
    6e9e:	428b      	cmp	r3, r1
    6ea0:	d301      	bcc.n	6ea6 <__divsi3+0xea>
    6ea2:	008b      	lsls	r3, r1, #2
    6ea4:	1ac0      	subs	r0, r0, r3
    6ea6:	4152      	adcs	r2, r2
    6ea8:	0843      	lsrs	r3, r0, #1
    6eaa:	428b      	cmp	r3, r1
    6eac:	d301      	bcc.n	6eb2 <__divsi3+0xf6>
    6eae:	004b      	lsls	r3, r1, #1
    6eb0:	1ac0      	subs	r0, r0, r3
    6eb2:	4152      	adcs	r2, r2
    6eb4:	1a41      	subs	r1, r0, r1
    6eb6:	d200      	bcs.n	6eba <__divsi3+0xfe>
    6eb8:	4601      	mov	r1, r0
    6eba:	4152      	adcs	r2, r2
    6ebc:	4610      	mov	r0, r2
    6ebe:	4770      	bx	lr
    6ec0:	e05d      	b.n	6f7e <__divsi3+0x1c2>
    6ec2:	0fca      	lsrs	r2, r1, #31
    6ec4:	d000      	beq.n	6ec8 <__divsi3+0x10c>
    6ec6:	4249      	negs	r1, r1
    6ec8:	1003      	asrs	r3, r0, #32
    6eca:	d300      	bcc.n	6ece <__divsi3+0x112>
    6ecc:	4240      	negs	r0, r0
    6ece:	4053      	eors	r3, r2
    6ed0:	2200      	movs	r2, #0
    6ed2:	469c      	mov	ip, r3
    6ed4:	0903      	lsrs	r3, r0, #4
    6ed6:	428b      	cmp	r3, r1
    6ed8:	d32d      	bcc.n	6f36 <__divsi3+0x17a>
    6eda:	0a03      	lsrs	r3, r0, #8
    6edc:	428b      	cmp	r3, r1
    6ede:	d312      	bcc.n	6f06 <__divsi3+0x14a>
    6ee0:	22fc      	movs	r2, #252	; 0xfc
    6ee2:	0189      	lsls	r1, r1, #6
    6ee4:	ba12      	rev	r2, r2
    6ee6:	0a03      	lsrs	r3, r0, #8
    6ee8:	428b      	cmp	r3, r1
    6eea:	d30c      	bcc.n	6f06 <__divsi3+0x14a>
    6eec:	0189      	lsls	r1, r1, #6
    6eee:	1192      	asrs	r2, r2, #6
    6ef0:	428b      	cmp	r3, r1
    6ef2:	d308      	bcc.n	6f06 <__divsi3+0x14a>
    6ef4:	0189      	lsls	r1, r1, #6
    6ef6:	1192      	asrs	r2, r2, #6
    6ef8:	428b      	cmp	r3, r1
    6efa:	d304      	bcc.n	6f06 <__divsi3+0x14a>
    6efc:	0189      	lsls	r1, r1, #6
    6efe:	d03a      	beq.n	6f76 <__divsi3+0x1ba>
    6f00:	1192      	asrs	r2, r2, #6
    6f02:	e000      	b.n	6f06 <__divsi3+0x14a>
    6f04:	0989      	lsrs	r1, r1, #6
    6f06:	09c3      	lsrs	r3, r0, #7
    6f08:	428b      	cmp	r3, r1
    6f0a:	d301      	bcc.n	6f10 <__divsi3+0x154>
    6f0c:	01cb      	lsls	r3, r1, #7
    6f0e:	1ac0      	subs	r0, r0, r3
    6f10:	4152      	adcs	r2, r2
    6f12:	0983      	lsrs	r3, r0, #6
    6f14:	428b      	cmp	r3, r1
    6f16:	d301      	bcc.n	6f1c <__divsi3+0x160>
    6f18:	018b      	lsls	r3, r1, #6
    6f1a:	1ac0      	subs	r0, r0, r3
    6f1c:	4152      	adcs	r2, r2
    6f1e:	0943      	lsrs	r3, r0, #5
    6f20:	428b      	cmp	r3, r1
    6f22:	d301      	bcc.n	6f28 <__divsi3+0x16c>
    6f24:	014b      	lsls	r3, r1, #5
    6f26:	1ac0      	subs	r0, r0, r3
    6f28:	4152      	adcs	r2, r2
    6f2a:	0903      	lsrs	r3, r0, #4
    6f2c:	428b      	cmp	r3, r1
    6f2e:	d301      	bcc.n	6f34 <__divsi3+0x178>
    6f30:	010b      	lsls	r3, r1, #4
    6f32:	1ac0      	subs	r0, r0, r3
    6f34:	4152      	adcs	r2, r2
    6f36:	08c3      	lsrs	r3, r0, #3
    6f38:	428b      	cmp	r3, r1
    6f3a:	d301      	bcc.n	6f40 <__divsi3+0x184>
    6f3c:	00cb      	lsls	r3, r1, #3
    6f3e:	1ac0      	subs	r0, r0, r3
    6f40:	4152      	adcs	r2, r2
    6f42:	0883      	lsrs	r3, r0, #2
    6f44:	428b      	cmp	r3, r1
    6f46:	d301      	bcc.n	6f4c <__divsi3+0x190>
    6f48:	008b      	lsls	r3, r1, #2
    6f4a:	1ac0      	subs	r0, r0, r3
    6f4c:	4152      	adcs	r2, r2
    6f4e:	d2d9      	bcs.n	6f04 <__divsi3+0x148>
    6f50:	0843      	lsrs	r3, r0, #1
    6f52:	428b      	cmp	r3, r1
    6f54:	d301      	bcc.n	6f5a <__divsi3+0x19e>
    6f56:	004b      	lsls	r3, r1, #1
    6f58:	1ac0      	subs	r0, r0, r3
    6f5a:	4152      	adcs	r2, r2
    6f5c:	1a41      	subs	r1, r0, r1
    6f5e:	d200      	bcs.n	6f62 <__divsi3+0x1a6>
    6f60:	4601      	mov	r1, r0
    6f62:	4663      	mov	r3, ip
    6f64:	4152      	adcs	r2, r2
    6f66:	105b      	asrs	r3, r3, #1
    6f68:	4610      	mov	r0, r2
    6f6a:	d301      	bcc.n	6f70 <__divsi3+0x1b4>
    6f6c:	4240      	negs	r0, r0
    6f6e:	2b00      	cmp	r3, #0
    6f70:	d500      	bpl.n	6f74 <__divsi3+0x1b8>
    6f72:	4249      	negs	r1, r1
    6f74:	4770      	bx	lr
    6f76:	4663      	mov	r3, ip
    6f78:	105b      	asrs	r3, r3, #1
    6f7a:	d300      	bcc.n	6f7e <__divsi3+0x1c2>
    6f7c:	4240      	negs	r0, r0
    6f7e:	b501      	push	{r0, lr}
    6f80:	2000      	movs	r0, #0
    6f82:	f000 f805 	bl	6f90 <__aeabi_idiv0>
    6f86:	bd02      	pop	{r1, pc}

00006f88 <__aeabi_idivmod>:
__aeabi_idivmod():
    6f88:	2900      	cmp	r1, #0
    6f8a:	d0f8      	beq.n	6f7e <__divsi3+0x1c2>
    6f8c:	e716      	b.n	6dbc <__divsi3>
    6f8e:	4770      	bx	lr

00006f90 <__aeabi_idiv0>:
__aeabi_idiv0():
    6f90:	4770      	bx	lr
    6f92:	46c0      	nop			; (mov r8, r8)

00006f94 <__aeabi_cdrcmple>:
__aeabi_cdrcmple():
    6f94:	4684      	mov	ip, r0
    6f96:	1c10      	adds	r0, r2, #0
    6f98:	4662      	mov	r2, ip
    6f9a:	468c      	mov	ip, r1
    6f9c:	1c19      	adds	r1, r3, #0
    6f9e:	4663      	mov	r3, ip
    6fa0:	e000      	b.n	6fa4 <__aeabi_cdcmpeq>
    6fa2:	46c0      	nop			; (mov r8, r8)

00006fa4 <__aeabi_cdcmpeq>:
__aeabi_cdcmpeq():
    6fa4:	b51f      	push	{r0, r1, r2, r3, r4, lr}
    6fa6:	f000 f9f1 	bl	738c <__ledf2>
    6faa:	2800      	cmp	r0, #0
    6fac:	d401      	bmi.n	6fb2 <__aeabi_cdcmpeq+0xe>
    6fae:	2100      	movs	r1, #0
    6fb0:	42c8      	cmn	r0, r1
    6fb2:	bd1f      	pop	{r0, r1, r2, r3, r4, pc}

00006fb4 <__aeabi_dcmpeq>:
__aeabi_dcmpeq():
    6fb4:	b510      	push	{r4, lr}
    6fb6:	f000 f949 	bl	724c <__eqdf2>
    6fba:	4240      	negs	r0, r0
    6fbc:	3001      	adds	r0, #1
    6fbe:	bd10      	pop	{r4, pc}

00006fc0 <__aeabi_dcmplt>:
__aeabi_dcmplt():
    6fc0:	b510      	push	{r4, lr}
    6fc2:	f000 f9e3 	bl	738c <__ledf2>
    6fc6:	2800      	cmp	r0, #0
    6fc8:	db01      	blt.n	6fce <__aeabi_dcmplt+0xe>
    6fca:	2000      	movs	r0, #0
    6fcc:	bd10      	pop	{r4, pc}
    6fce:	2001      	movs	r0, #1
    6fd0:	bd10      	pop	{r4, pc}
    6fd2:	46c0      	nop			; (mov r8, r8)

00006fd4 <__aeabi_dcmple>:
__aeabi_dcmple():
    6fd4:	b510      	push	{r4, lr}
    6fd6:	f000 f9d9 	bl	738c <__ledf2>
    6fda:	2800      	cmp	r0, #0
    6fdc:	dd01      	ble.n	6fe2 <__aeabi_dcmple+0xe>
    6fde:	2000      	movs	r0, #0
    6fe0:	bd10      	pop	{r4, pc}
    6fe2:	2001      	movs	r0, #1
    6fe4:	bd10      	pop	{r4, pc}
    6fe6:	46c0      	nop			; (mov r8, r8)

00006fe8 <__aeabi_dcmpgt>:
__aeabi_dcmpgt():
    6fe8:	b510      	push	{r4, lr}
    6fea:	f000 f96b 	bl	72c4 <__gedf2>
    6fee:	2800      	cmp	r0, #0
    6ff0:	dc01      	bgt.n	6ff6 <__aeabi_dcmpgt+0xe>
    6ff2:	2000      	movs	r0, #0
    6ff4:	bd10      	pop	{r4, pc}
    6ff6:	2001      	movs	r0, #1
    6ff8:	bd10      	pop	{r4, pc}
    6ffa:	46c0      	nop			; (mov r8, r8)

00006ffc <__aeabi_dcmpge>:
__aeabi_dcmpge():
    6ffc:	b510      	push	{r4, lr}
    6ffe:	f000 f961 	bl	72c4 <__gedf2>
    7002:	2800      	cmp	r0, #0
    7004:	da01      	bge.n	700a <__aeabi_dcmpge+0xe>
    7006:	2000      	movs	r0, #0
    7008:	bd10      	pop	{r4, pc}
    700a:	2001      	movs	r0, #1
    700c:	bd10      	pop	{r4, pc}
    700e:	46c0      	nop			; (mov r8, r8)

00007010 <__aeabi_uldivmod>:
__aeabi_uldivmod():
    7010:	2b00      	cmp	r3, #0
    7012:	d111      	bne.n	7038 <__aeabi_uldivmod+0x28>
    7014:	2a00      	cmp	r2, #0
    7016:	d10f      	bne.n	7038 <__aeabi_uldivmod+0x28>
    7018:	2900      	cmp	r1, #0
    701a:	d100      	bne.n	701e <__aeabi_uldivmod+0xe>
    701c:	2800      	cmp	r0, #0
    701e:	d002      	beq.n	7026 <__aeabi_uldivmod+0x16>
    7020:	2100      	movs	r1, #0
    7022:	43c9      	mvns	r1, r1
    7024:	1c08      	adds	r0, r1, #0
    7026:	b407      	push	{r0, r1, r2}
    7028:	4802      	ldr	r0, [pc, #8]	; (7034 <__aeabi_uldivmod+0x24>)
    702a:	a102      	add	r1, pc, #8	; (adr r1, 7034 <__aeabi_uldivmod+0x24>)
    702c:	1840      	adds	r0, r0, r1
    702e:	9002      	str	r0, [sp, #8]
    7030:	bd03      	pop	{r0, r1, pc}
    7032:	46c0      	nop			; (mov r8, r8)
    7034:	ffffff5d 	.word	0xffffff5d
    7038:	b403      	push	{r0, r1}
    703a:	4668      	mov	r0, sp
    703c:	b501      	push	{r0, lr}
    703e:	9802      	ldr	r0, [sp, #8]
    7040:	f000 f842 	bl	70c8 <__udivmoddi4>
    7044:	9b01      	ldr	r3, [sp, #4]
    7046:	469e      	mov	lr, r3
    7048:	b002      	add	sp, #8
    704a:	bc0c      	pop	{r2, r3}
    704c:	4770      	bx	lr
    704e:	46c0      	nop			; (mov r8, r8)

00007050 <__aeabi_d2uiz>:
__aeabi_d2uiz():
    7050:	b570      	push	{r4, r5, r6, lr}
    7052:	2200      	movs	r2, #0
    7054:	4b0c      	ldr	r3, [pc, #48]	; (7088 <__aeabi_d2uiz+0x38>)
    7056:	0004      	movs	r4, r0
    7058:	000d      	movs	r5, r1
    705a:	f7ff ffcf 	bl	6ffc <__aeabi_dcmpge>
    705e:	2800      	cmp	r0, #0
    7060:	d104      	bne.n	706c <__aeabi_d2uiz+0x1c>
    7062:	0020      	movs	r0, r4
    7064:	0029      	movs	r1, r5
    7066:	f000 ffb3 	bl	7fd0 <__aeabi_d2iz>
    706a:	bd70      	pop	{r4, r5, r6, pc}
    706c:	4b06      	ldr	r3, [pc, #24]	; (7088 <__aeabi_d2uiz+0x38>)
    706e:	2200      	movs	r2, #0
    7070:	0020      	movs	r0, r4
    7072:	0029      	movs	r1, r5
    7074:	f000 fc64 	bl	7940 <__aeabi_dsub>
    7078:	f000 ffaa 	bl	7fd0 <__aeabi_d2iz>
    707c:	2380      	movs	r3, #128	; 0x80
    707e:	061b      	lsls	r3, r3, #24
    7080:	469c      	mov	ip, r3
    7082:	4460      	add	r0, ip
    7084:	e7f1      	b.n	706a <__aeabi_d2uiz+0x1a>
    7086:	46c0      	nop			; (mov r8, r8)
    7088:	41e00000 	.word	0x41e00000

0000708c <__aeabi_d2ulz>:
__fixunsdfdi():
    708c:	b570      	push	{r4, r5, r6, lr}
    708e:	2200      	movs	r2, #0
    7090:	4b0b      	ldr	r3, [pc, #44]	; (70c0 <__aeabi_d2ulz+0x34>)
    7092:	000d      	movs	r5, r1
    7094:	0004      	movs	r4, r0
    7096:	f000 f9e1 	bl	745c <__aeabi_dmul>
    709a:	f7ff ffd9 	bl	7050 <__aeabi_d2uiz>
    709e:	0006      	movs	r6, r0
    70a0:	f000 ffcc 	bl	803c <__aeabi_ui2d>
    70a4:	2200      	movs	r2, #0
    70a6:	4b07      	ldr	r3, [pc, #28]	; (70c4 <__aeabi_d2ulz+0x38>)
    70a8:	f000 f9d8 	bl	745c <__aeabi_dmul>
    70ac:	0002      	movs	r2, r0
    70ae:	000b      	movs	r3, r1
    70b0:	0020      	movs	r0, r4
    70b2:	0029      	movs	r1, r5
    70b4:	f000 fc44 	bl	7940 <__aeabi_dsub>
    70b8:	f7ff ffca 	bl	7050 <__aeabi_d2uiz>
    70bc:	0031      	movs	r1, r6
    70be:	bd70      	pop	{r4, r5, r6, pc}
    70c0:	3df00000 	.word	0x3df00000
    70c4:	41f00000 	.word	0x41f00000

000070c8 <__udivmoddi4>:
__udivmoddi4():
    70c8:	b5f0      	push	{r4, r5, r6, r7, lr}
    70ca:	464f      	mov	r7, r9
    70cc:	4646      	mov	r6, r8
    70ce:	46d6      	mov	lr, sl
    70d0:	b5c0      	push	{r6, r7, lr}
    70d2:	0004      	movs	r4, r0
    70d4:	b082      	sub	sp, #8
    70d6:	000d      	movs	r5, r1
    70d8:	4691      	mov	r9, r2
    70da:	4698      	mov	r8, r3
    70dc:	428b      	cmp	r3, r1
    70de:	d82f      	bhi.n	7140 <__udivmoddi4+0x78>
    70e0:	d02c      	beq.n	713c <__udivmoddi4+0x74>
    70e2:	4641      	mov	r1, r8
    70e4:	4648      	mov	r0, r9
    70e6:	f000 fff9 	bl	80dc <__clzdi2>
    70ea:	0029      	movs	r1, r5
    70ec:	0006      	movs	r6, r0
    70ee:	0020      	movs	r0, r4
    70f0:	f000 fff4 	bl	80dc <__clzdi2>
    70f4:	1a33      	subs	r3, r6, r0
    70f6:	469c      	mov	ip, r3
    70f8:	3b20      	subs	r3, #32
    70fa:	469a      	mov	sl, r3
    70fc:	d500      	bpl.n	7100 <__udivmoddi4+0x38>
    70fe:	e076      	b.n	71ee <__udivmoddi4+0x126>
    7100:	464b      	mov	r3, r9
    7102:	4652      	mov	r2, sl
    7104:	4093      	lsls	r3, r2
    7106:	001f      	movs	r7, r3
    7108:	464b      	mov	r3, r9
    710a:	4662      	mov	r2, ip
    710c:	4093      	lsls	r3, r2
    710e:	001e      	movs	r6, r3
    7110:	42af      	cmp	r7, r5
    7112:	d828      	bhi.n	7166 <__udivmoddi4+0x9e>
    7114:	d025      	beq.n	7162 <__udivmoddi4+0x9a>
    7116:	4653      	mov	r3, sl
    7118:	1ba4      	subs	r4, r4, r6
    711a:	41bd      	sbcs	r5, r7
    711c:	2b00      	cmp	r3, #0
    711e:	da00      	bge.n	7122 <__udivmoddi4+0x5a>
    7120:	e07b      	b.n	721a <__udivmoddi4+0x152>
    7122:	2200      	movs	r2, #0
    7124:	2300      	movs	r3, #0
    7126:	9200      	str	r2, [sp, #0]
    7128:	9301      	str	r3, [sp, #4]
    712a:	2301      	movs	r3, #1
    712c:	4652      	mov	r2, sl
    712e:	4093      	lsls	r3, r2
    7130:	9301      	str	r3, [sp, #4]
    7132:	2301      	movs	r3, #1
    7134:	4662      	mov	r2, ip
    7136:	4093      	lsls	r3, r2
    7138:	9300      	str	r3, [sp, #0]
    713a:	e018      	b.n	716e <__udivmoddi4+0xa6>
    713c:	4282      	cmp	r2, r0
    713e:	d9d0      	bls.n	70e2 <__udivmoddi4+0x1a>
    7140:	2200      	movs	r2, #0
    7142:	2300      	movs	r3, #0
    7144:	9200      	str	r2, [sp, #0]
    7146:	9301      	str	r3, [sp, #4]
    7148:	9b0a      	ldr	r3, [sp, #40]	; 0x28
    714a:	2b00      	cmp	r3, #0
    714c:	d001      	beq.n	7152 <__udivmoddi4+0x8a>
    714e:	601c      	str	r4, [r3, #0]
    7150:	605d      	str	r5, [r3, #4]
    7152:	9800      	ldr	r0, [sp, #0]
    7154:	9901      	ldr	r1, [sp, #4]
    7156:	b002      	add	sp, #8
    7158:	bc1c      	pop	{r2, r3, r4}
    715a:	4690      	mov	r8, r2
    715c:	4699      	mov	r9, r3
    715e:	46a2      	mov	sl, r4
    7160:	bdf0      	pop	{r4, r5, r6, r7, pc}
    7162:	42a3      	cmp	r3, r4
    7164:	d9d7      	bls.n	7116 <__udivmoddi4+0x4e>
    7166:	2200      	movs	r2, #0
    7168:	2300      	movs	r3, #0
    716a:	9200      	str	r2, [sp, #0]
    716c:	9301      	str	r3, [sp, #4]
    716e:	4663      	mov	r3, ip
    7170:	2b00      	cmp	r3, #0
    7172:	d0e9      	beq.n	7148 <__udivmoddi4+0x80>
    7174:	07fb      	lsls	r3, r7, #31
    7176:	4698      	mov	r8, r3
    7178:	4641      	mov	r1, r8
    717a:	0872      	lsrs	r2, r6, #1
    717c:	430a      	orrs	r2, r1
    717e:	087b      	lsrs	r3, r7, #1
    7180:	4666      	mov	r6, ip
    7182:	e00e      	b.n	71a2 <__udivmoddi4+0xda>
    7184:	42ab      	cmp	r3, r5
    7186:	d101      	bne.n	718c <__udivmoddi4+0xc4>
    7188:	42a2      	cmp	r2, r4
    718a:	d80c      	bhi.n	71a6 <__udivmoddi4+0xde>
    718c:	1aa4      	subs	r4, r4, r2
    718e:	419d      	sbcs	r5, r3
    7190:	2001      	movs	r0, #1
    7192:	1924      	adds	r4, r4, r4
    7194:	416d      	adcs	r5, r5
    7196:	2100      	movs	r1, #0
    7198:	3e01      	subs	r6, #1
    719a:	1824      	adds	r4, r4, r0
    719c:	414d      	adcs	r5, r1
    719e:	2e00      	cmp	r6, #0
    71a0:	d006      	beq.n	71b0 <__udivmoddi4+0xe8>
    71a2:	42ab      	cmp	r3, r5
    71a4:	d9ee      	bls.n	7184 <__udivmoddi4+0xbc>
    71a6:	3e01      	subs	r6, #1
    71a8:	1924      	adds	r4, r4, r4
    71aa:	416d      	adcs	r5, r5
    71ac:	2e00      	cmp	r6, #0
    71ae:	d1f8      	bne.n	71a2 <__udivmoddi4+0xda>
    71b0:	9800      	ldr	r0, [sp, #0]
    71b2:	9901      	ldr	r1, [sp, #4]
    71b4:	4653      	mov	r3, sl
    71b6:	1900      	adds	r0, r0, r4
    71b8:	4169      	adcs	r1, r5
    71ba:	2b00      	cmp	r3, #0
    71bc:	db23      	blt.n	7206 <__udivmoddi4+0x13e>
    71be:	002b      	movs	r3, r5
    71c0:	4652      	mov	r2, sl
    71c2:	40d3      	lsrs	r3, r2
    71c4:	002a      	movs	r2, r5
    71c6:	4664      	mov	r4, ip
    71c8:	40e2      	lsrs	r2, r4
    71ca:	001c      	movs	r4, r3
    71cc:	4653      	mov	r3, sl
    71ce:	0015      	movs	r5, r2
    71d0:	2b00      	cmp	r3, #0
    71d2:	db2d      	blt.n	7230 <__udivmoddi4+0x168>
    71d4:	0026      	movs	r6, r4
    71d6:	4657      	mov	r7, sl
    71d8:	40be      	lsls	r6, r7
    71da:	0033      	movs	r3, r6
    71dc:	0026      	movs	r6, r4
    71de:	4667      	mov	r7, ip
    71e0:	40be      	lsls	r6, r7
    71e2:	0032      	movs	r2, r6
    71e4:	1a80      	subs	r0, r0, r2
    71e6:	4199      	sbcs	r1, r3
    71e8:	9000      	str	r0, [sp, #0]
    71ea:	9101      	str	r1, [sp, #4]
    71ec:	e7ac      	b.n	7148 <__udivmoddi4+0x80>
    71ee:	4662      	mov	r2, ip
    71f0:	2320      	movs	r3, #32
    71f2:	1a9b      	subs	r3, r3, r2
    71f4:	464a      	mov	r2, r9
    71f6:	40da      	lsrs	r2, r3
    71f8:	4661      	mov	r1, ip
    71fa:	0013      	movs	r3, r2
    71fc:	4642      	mov	r2, r8
    71fe:	408a      	lsls	r2, r1
    7200:	0017      	movs	r7, r2
    7202:	431f      	orrs	r7, r3
    7204:	e780      	b.n	7108 <__udivmoddi4+0x40>
    7206:	4662      	mov	r2, ip
    7208:	2320      	movs	r3, #32
    720a:	1a9b      	subs	r3, r3, r2
    720c:	002a      	movs	r2, r5
    720e:	4666      	mov	r6, ip
    7210:	409a      	lsls	r2, r3
    7212:	0023      	movs	r3, r4
    7214:	40f3      	lsrs	r3, r6
    7216:	4313      	orrs	r3, r2
    7218:	e7d4      	b.n	71c4 <__udivmoddi4+0xfc>
    721a:	4662      	mov	r2, ip
    721c:	2320      	movs	r3, #32
    721e:	2100      	movs	r1, #0
    7220:	1a9b      	subs	r3, r3, r2
    7222:	2200      	movs	r2, #0
    7224:	9100      	str	r1, [sp, #0]
    7226:	9201      	str	r2, [sp, #4]
    7228:	2201      	movs	r2, #1
    722a:	40da      	lsrs	r2, r3
    722c:	9201      	str	r2, [sp, #4]
    722e:	e780      	b.n	7132 <__udivmoddi4+0x6a>
    7230:	2320      	movs	r3, #32
    7232:	4662      	mov	r2, ip
    7234:	0026      	movs	r6, r4
    7236:	1a9b      	subs	r3, r3, r2
    7238:	40de      	lsrs	r6, r3
    723a:	002f      	movs	r7, r5
    723c:	46b0      	mov	r8, r6
    723e:	4666      	mov	r6, ip
    7240:	40b7      	lsls	r7, r6
    7242:	4646      	mov	r6, r8
    7244:	003b      	movs	r3, r7
    7246:	4333      	orrs	r3, r6
    7248:	e7c8      	b.n	71dc <__udivmoddi4+0x114>
    724a:	46c0      	nop			; (mov r8, r8)

0000724c <__eqdf2>:
__nedf2():
    724c:	b5f0      	push	{r4, r5, r6, r7, lr}
    724e:	464f      	mov	r7, r9
    7250:	4646      	mov	r6, r8
    7252:	46d6      	mov	lr, sl
    7254:	4684      	mov	ip, r0
    7256:	b5c0      	push	{r6, r7, lr}
    7258:	4680      	mov	r8, r0
    725a:	4e19      	ldr	r6, [pc, #100]	; (72c0 <__eqdf2+0x74>)
    725c:	0318      	lsls	r0, r3, #12
    725e:	030f      	lsls	r7, r1, #12
    7260:	004d      	lsls	r5, r1, #1
    7262:	0b00      	lsrs	r0, r0, #12
    7264:	005c      	lsls	r4, r3, #1
    7266:	4682      	mov	sl, r0
    7268:	0b3f      	lsrs	r7, r7, #12
    726a:	0d6d      	lsrs	r5, r5, #21
    726c:	0fc9      	lsrs	r1, r1, #31
    726e:	4691      	mov	r9, r2
    7270:	0d64      	lsrs	r4, r4, #21
    7272:	0fdb      	lsrs	r3, r3, #31
    7274:	2001      	movs	r0, #1
    7276:	42b5      	cmp	r5, r6
    7278:	d00a      	beq.n	7290 <__eqdf2+0x44>
    727a:	42b4      	cmp	r4, r6
    727c:	d003      	beq.n	7286 <__eqdf2+0x3a>
    727e:	42a5      	cmp	r5, r4
    7280:	d101      	bne.n	7286 <__eqdf2+0x3a>
    7282:	4557      	cmp	r7, sl
    7284:	d00c      	beq.n	72a0 <__eqdf2+0x54>
    7286:	bc1c      	pop	{r2, r3, r4}
    7288:	4690      	mov	r8, r2
    728a:	4699      	mov	r9, r3
    728c:	46a2      	mov	sl, r4
    728e:	bdf0      	pop	{r4, r5, r6, r7, pc}
    7290:	4666      	mov	r6, ip
    7292:	433e      	orrs	r6, r7
    7294:	d1f7      	bne.n	7286 <__eqdf2+0x3a>
    7296:	42ac      	cmp	r4, r5
    7298:	d1f5      	bne.n	7286 <__eqdf2+0x3a>
    729a:	4654      	mov	r4, sl
    729c:	4314      	orrs	r4, r2
    729e:	d1f2      	bne.n	7286 <__eqdf2+0x3a>
    72a0:	2001      	movs	r0, #1
    72a2:	45c8      	cmp	r8, r9
    72a4:	d1ef      	bne.n	7286 <__eqdf2+0x3a>
    72a6:	4299      	cmp	r1, r3
    72a8:	d007      	beq.n	72ba <__eqdf2+0x6e>
    72aa:	2d00      	cmp	r5, #0
    72ac:	d1eb      	bne.n	7286 <__eqdf2+0x3a>
    72ae:	4663      	mov	r3, ip
    72b0:	431f      	orrs	r7, r3
    72b2:	0038      	movs	r0, r7
    72b4:	1e47      	subs	r7, r0, #1
    72b6:	41b8      	sbcs	r0, r7
    72b8:	e7e5      	b.n	7286 <__eqdf2+0x3a>
    72ba:	2000      	movs	r0, #0
    72bc:	e7e3      	b.n	7286 <__eqdf2+0x3a>
    72be:	46c0      	nop			; (mov r8, r8)
    72c0:	000007ff 	.word	0x000007ff

000072c4 <__gedf2>:
__gedf2():
    72c4:	b5f0      	push	{r4, r5, r6, r7, lr}
    72c6:	464f      	mov	r7, r9
    72c8:	4646      	mov	r6, r8
    72ca:	46d6      	mov	lr, sl
    72cc:	004d      	lsls	r5, r1, #1
    72ce:	b5c0      	push	{r6, r7, lr}
    72d0:	030e      	lsls	r6, r1, #12
    72d2:	0fc9      	lsrs	r1, r1, #31
    72d4:	468a      	mov	sl, r1
    72d6:	492c      	ldr	r1, [pc, #176]	; (7388 <__gedf2+0xc4>)
    72d8:	031f      	lsls	r7, r3, #12
    72da:	005c      	lsls	r4, r3, #1
    72dc:	4680      	mov	r8, r0
    72de:	0b36      	lsrs	r6, r6, #12
    72e0:	0d6d      	lsrs	r5, r5, #21
    72e2:	4691      	mov	r9, r2
    72e4:	0b3f      	lsrs	r7, r7, #12
    72e6:	0d64      	lsrs	r4, r4, #21
    72e8:	0fdb      	lsrs	r3, r3, #31
    72ea:	428d      	cmp	r5, r1
    72ec:	d01e      	beq.n	732c <__gedf2+0x68>
    72ee:	428c      	cmp	r4, r1
    72f0:	d016      	beq.n	7320 <__gedf2+0x5c>
    72f2:	2d00      	cmp	r5, #0
    72f4:	d11e      	bne.n	7334 <__gedf2+0x70>
    72f6:	4330      	orrs	r0, r6
    72f8:	4684      	mov	ip, r0
    72fa:	2c00      	cmp	r4, #0
    72fc:	d101      	bne.n	7302 <__gedf2+0x3e>
    72fe:	433a      	orrs	r2, r7
    7300:	d023      	beq.n	734a <__gedf2+0x86>
    7302:	4662      	mov	r2, ip
    7304:	2a00      	cmp	r2, #0
    7306:	d01a      	beq.n	733e <__gedf2+0x7a>
    7308:	459a      	cmp	sl, r3
    730a:	d029      	beq.n	7360 <__gedf2+0x9c>
    730c:	4651      	mov	r1, sl
    730e:	2002      	movs	r0, #2
    7310:	3901      	subs	r1, #1
    7312:	4008      	ands	r0, r1
    7314:	3801      	subs	r0, #1
    7316:	bc1c      	pop	{r2, r3, r4}
    7318:	4690      	mov	r8, r2
    731a:	4699      	mov	r9, r3
    731c:	46a2      	mov	sl, r4
    731e:	bdf0      	pop	{r4, r5, r6, r7, pc}
    7320:	0039      	movs	r1, r7
    7322:	4311      	orrs	r1, r2
    7324:	d0e5      	beq.n	72f2 <__gedf2+0x2e>
    7326:	2002      	movs	r0, #2
    7328:	4240      	negs	r0, r0
    732a:	e7f4      	b.n	7316 <__gedf2+0x52>
    732c:	4330      	orrs	r0, r6
    732e:	d1fa      	bne.n	7326 <__gedf2+0x62>
    7330:	42ac      	cmp	r4, r5
    7332:	d00f      	beq.n	7354 <__gedf2+0x90>
    7334:	2c00      	cmp	r4, #0
    7336:	d10f      	bne.n	7358 <__gedf2+0x94>
    7338:	433a      	orrs	r2, r7
    733a:	d0e7      	beq.n	730c <__gedf2+0x48>
    733c:	e00c      	b.n	7358 <__gedf2+0x94>
    733e:	2201      	movs	r2, #1
    7340:	3b01      	subs	r3, #1
    7342:	4393      	bics	r3, r2
    7344:	0018      	movs	r0, r3
    7346:	3001      	adds	r0, #1
    7348:	e7e5      	b.n	7316 <__gedf2+0x52>
    734a:	4663      	mov	r3, ip
    734c:	2000      	movs	r0, #0
    734e:	2b00      	cmp	r3, #0
    7350:	d0e1      	beq.n	7316 <__gedf2+0x52>
    7352:	e7db      	b.n	730c <__gedf2+0x48>
    7354:	433a      	orrs	r2, r7
    7356:	d1e6      	bne.n	7326 <__gedf2+0x62>
    7358:	459a      	cmp	sl, r3
    735a:	d1d7      	bne.n	730c <__gedf2+0x48>
    735c:	42a5      	cmp	r5, r4
    735e:	dcd5      	bgt.n	730c <__gedf2+0x48>
    7360:	42a5      	cmp	r5, r4
    7362:	db05      	blt.n	7370 <__gedf2+0xac>
    7364:	42be      	cmp	r6, r7
    7366:	d8d1      	bhi.n	730c <__gedf2+0x48>
    7368:	d008      	beq.n	737c <__gedf2+0xb8>
    736a:	2000      	movs	r0, #0
    736c:	42be      	cmp	r6, r7
    736e:	d2d2      	bcs.n	7316 <__gedf2+0x52>
    7370:	4650      	mov	r0, sl
    7372:	2301      	movs	r3, #1
    7374:	3801      	subs	r0, #1
    7376:	4398      	bics	r0, r3
    7378:	3001      	adds	r0, #1
    737a:	e7cc      	b.n	7316 <__gedf2+0x52>
    737c:	45c8      	cmp	r8, r9
    737e:	d8c5      	bhi.n	730c <__gedf2+0x48>
    7380:	2000      	movs	r0, #0
    7382:	45c8      	cmp	r8, r9
    7384:	d3f4      	bcc.n	7370 <__gedf2+0xac>
    7386:	e7c6      	b.n	7316 <__gedf2+0x52>
    7388:	000007ff 	.word	0x000007ff

0000738c <__ledf2>:
__ledf2():
    738c:	b5f0      	push	{r4, r5, r6, r7, lr}
    738e:	464f      	mov	r7, r9
    7390:	4646      	mov	r6, r8
    7392:	46d6      	mov	lr, sl
    7394:	004d      	lsls	r5, r1, #1
    7396:	b5c0      	push	{r6, r7, lr}
    7398:	030e      	lsls	r6, r1, #12
    739a:	0fc9      	lsrs	r1, r1, #31
    739c:	468a      	mov	sl, r1
    739e:	492e      	ldr	r1, [pc, #184]	; (7458 <__ledf2+0xcc>)
    73a0:	031f      	lsls	r7, r3, #12
    73a2:	005c      	lsls	r4, r3, #1
    73a4:	4680      	mov	r8, r0
    73a6:	0b36      	lsrs	r6, r6, #12
    73a8:	0d6d      	lsrs	r5, r5, #21
    73aa:	4691      	mov	r9, r2
    73ac:	0b3f      	lsrs	r7, r7, #12
    73ae:	0d64      	lsrs	r4, r4, #21
    73b0:	0fdb      	lsrs	r3, r3, #31
    73b2:	428d      	cmp	r5, r1
    73b4:	d018      	beq.n	73e8 <__ledf2+0x5c>
    73b6:	428c      	cmp	r4, r1
    73b8:	d011      	beq.n	73de <__ledf2+0x52>
    73ba:	2d00      	cmp	r5, #0
    73bc:	d118      	bne.n	73f0 <__ledf2+0x64>
    73be:	4330      	orrs	r0, r6
    73c0:	4684      	mov	ip, r0
    73c2:	2c00      	cmp	r4, #0
    73c4:	d11e      	bne.n	7404 <__ledf2+0x78>
    73c6:	433a      	orrs	r2, r7
    73c8:	d11c      	bne.n	7404 <__ledf2+0x78>
    73ca:	4663      	mov	r3, ip
    73cc:	2000      	movs	r0, #0
    73ce:	2b00      	cmp	r3, #0
    73d0:	d030      	beq.n	7434 <__ledf2+0xa8>
    73d2:	4651      	mov	r1, sl
    73d4:	2002      	movs	r0, #2
    73d6:	3901      	subs	r1, #1
    73d8:	4008      	ands	r0, r1
    73da:	3801      	subs	r0, #1
    73dc:	e02a      	b.n	7434 <__ledf2+0xa8>
    73de:	0039      	movs	r1, r7
    73e0:	4311      	orrs	r1, r2
    73e2:	d0ea      	beq.n	73ba <__ledf2+0x2e>
    73e4:	2002      	movs	r0, #2
    73e6:	e025      	b.n	7434 <__ledf2+0xa8>
    73e8:	4330      	orrs	r0, r6
    73ea:	d1fb      	bne.n	73e4 <__ledf2+0x58>
    73ec:	42ac      	cmp	r4, r5
    73ee:	d026      	beq.n	743e <__ledf2+0xb2>
    73f0:	2c00      	cmp	r4, #0
    73f2:	d126      	bne.n	7442 <__ledf2+0xb6>
    73f4:	433a      	orrs	r2, r7
    73f6:	d124      	bne.n	7442 <__ledf2+0xb6>
    73f8:	4651      	mov	r1, sl
    73fa:	2002      	movs	r0, #2
    73fc:	3901      	subs	r1, #1
    73fe:	4008      	ands	r0, r1
    7400:	3801      	subs	r0, #1
    7402:	e017      	b.n	7434 <__ledf2+0xa8>
    7404:	4662      	mov	r2, ip
    7406:	2a00      	cmp	r2, #0
    7408:	d00f      	beq.n	742a <__ledf2+0x9e>
    740a:	459a      	cmp	sl, r3
    740c:	d1e1      	bne.n	73d2 <__ledf2+0x46>
    740e:	42a5      	cmp	r5, r4
    7410:	db05      	blt.n	741e <__ledf2+0x92>
    7412:	42be      	cmp	r6, r7
    7414:	d8dd      	bhi.n	73d2 <__ledf2+0x46>
    7416:	d019      	beq.n	744c <__ledf2+0xc0>
    7418:	2000      	movs	r0, #0
    741a:	42be      	cmp	r6, r7
    741c:	d20a      	bcs.n	7434 <__ledf2+0xa8>
    741e:	4650      	mov	r0, sl
    7420:	2301      	movs	r3, #1
    7422:	3801      	subs	r0, #1
    7424:	4398      	bics	r0, r3
    7426:	3001      	adds	r0, #1
    7428:	e004      	b.n	7434 <__ledf2+0xa8>
    742a:	2201      	movs	r2, #1
    742c:	3b01      	subs	r3, #1
    742e:	4393      	bics	r3, r2
    7430:	0018      	movs	r0, r3
    7432:	3001      	adds	r0, #1
    7434:	bc1c      	pop	{r2, r3, r4}
    7436:	4690      	mov	r8, r2
    7438:	4699      	mov	r9, r3
    743a:	46a2      	mov	sl, r4
    743c:	bdf0      	pop	{r4, r5, r6, r7, pc}
    743e:	433a      	orrs	r2, r7
    7440:	d1d0      	bne.n	73e4 <__ledf2+0x58>
    7442:	459a      	cmp	sl, r3
    7444:	d1c5      	bne.n	73d2 <__ledf2+0x46>
    7446:	42a5      	cmp	r5, r4
    7448:	dcc3      	bgt.n	73d2 <__ledf2+0x46>
    744a:	e7e0      	b.n	740e <__ledf2+0x82>
    744c:	45c8      	cmp	r8, r9
    744e:	d8c0      	bhi.n	73d2 <__ledf2+0x46>
    7450:	2000      	movs	r0, #0
    7452:	45c8      	cmp	r8, r9
    7454:	d3e3      	bcc.n	741e <__ledf2+0x92>
    7456:	e7ed      	b.n	7434 <__ledf2+0xa8>
    7458:	000007ff 	.word	0x000007ff

0000745c <__aeabi_dmul>:
__aeabi_dmul():
    745c:	b5f0      	push	{r4, r5, r6, r7, lr}
    745e:	4657      	mov	r7, sl
    7460:	46de      	mov	lr, fp
    7462:	464e      	mov	r6, r9
    7464:	4645      	mov	r5, r8
    7466:	b5e0      	push	{r5, r6, r7, lr}
    7468:	4683      	mov	fp, r0
    746a:	0006      	movs	r6, r0
    746c:	030f      	lsls	r7, r1, #12
    746e:	0048      	lsls	r0, r1, #1
    7470:	b087      	sub	sp, #28
    7472:	4692      	mov	sl, r2
    7474:	001d      	movs	r5, r3
    7476:	0b3f      	lsrs	r7, r7, #12
    7478:	0d40      	lsrs	r0, r0, #21
    747a:	0fcc      	lsrs	r4, r1, #31
    747c:	2800      	cmp	r0, #0
    747e:	d100      	bne.n	7482 <__aeabi_dmul+0x26>
    7480:	e06f      	b.n	7562 <__aeabi_dmul+0x106>
    7482:	4bde      	ldr	r3, [pc, #888]	; (77fc <__aeabi_dmul+0x3a0>)
    7484:	4298      	cmp	r0, r3
    7486:	d038      	beq.n	74fa <__aeabi_dmul+0x9e>
    7488:	2380      	movs	r3, #128	; 0x80
    748a:	00ff      	lsls	r7, r7, #3
    748c:	041b      	lsls	r3, r3, #16
    748e:	431f      	orrs	r7, r3
    7490:	0f73      	lsrs	r3, r6, #29
    7492:	433b      	orrs	r3, r7
    7494:	9301      	str	r3, [sp, #4]
    7496:	4bda      	ldr	r3, [pc, #872]	; (7800 <__aeabi_dmul+0x3a4>)
    7498:	2700      	movs	r7, #0
    749a:	4699      	mov	r9, r3
    749c:	2300      	movs	r3, #0
    749e:	469b      	mov	fp, r3
    74a0:	00f6      	lsls	r6, r6, #3
    74a2:	4481      	add	r9, r0
    74a4:	032b      	lsls	r3, r5, #12
    74a6:	0069      	lsls	r1, r5, #1
    74a8:	0b1b      	lsrs	r3, r3, #12
    74aa:	4652      	mov	r2, sl
    74ac:	4698      	mov	r8, r3
    74ae:	0d49      	lsrs	r1, r1, #21
    74b0:	0fed      	lsrs	r5, r5, #31
    74b2:	2900      	cmp	r1, #0
    74b4:	d100      	bne.n	74b8 <__aeabi_dmul+0x5c>
    74b6:	e085      	b.n	75c4 <__aeabi_dmul+0x168>
    74b8:	4bd0      	ldr	r3, [pc, #832]	; (77fc <__aeabi_dmul+0x3a0>)
    74ba:	4299      	cmp	r1, r3
    74bc:	d100      	bne.n	74c0 <__aeabi_dmul+0x64>
    74be:	e073      	b.n	75a8 <__aeabi_dmul+0x14c>
    74c0:	4643      	mov	r3, r8
    74c2:	00da      	lsls	r2, r3, #3
    74c4:	2380      	movs	r3, #128	; 0x80
    74c6:	041b      	lsls	r3, r3, #16
    74c8:	4313      	orrs	r3, r2
    74ca:	4652      	mov	r2, sl
    74cc:	48cc      	ldr	r0, [pc, #816]	; (7800 <__aeabi_dmul+0x3a4>)
    74ce:	0f52      	lsrs	r2, r2, #29
    74d0:	4684      	mov	ip, r0
    74d2:	4313      	orrs	r3, r2
    74d4:	4652      	mov	r2, sl
    74d6:	2000      	movs	r0, #0
    74d8:	4461      	add	r1, ip
    74da:	00d2      	lsls	r2, r2, #3
    74dc:	4489      	add	r9, r1
    74de:	0021      	movs	r1, r4
    74e0:	4069      	eors	r1, r5
    74e2:	9100      	str	r1, [sp, #0]
    74e4:	468c      	mov	ip, r1
    74e6:	2101      	movs	r1, #1
    74e8:	4449      	add	r1, r9
    74ea:	468a      	mov	sl, r1
    74ec:	2f0f      	cmp	r7, #15
    74ee:	d900      	bls.n	74f2 <__aeabi_dmul+0x96>
    74f0:	e090      	b.n	7614 <__aeabi_dmul+0x1b8>
    74f2:	49c4      	ldr	r1, [pc, #784]	; (7804 <__aeabi_dmul+0x3a8>)
    74f4:	00bf      	lsls	r7, r7, #2
    74f6:	59cf      	ldr	r7, [r1, r7]
    74f8:	46bf      	mov	pc, r7
    74fa:	465b      	mov	r3, fp
    74fc:	433b      	orrs	r3, r7
    74fe:	9301      	str	r3, [sp, #4]
    7500:	d000      	beq.n	7504 <__aeabi_dmul+0xa8>
    7502:	e16a      	b.n	77da <__aeabi_dmul+0x37e>
    7504:	2302      	movs	r3, #2
    7506:	2708      	movs	r7, #8
    7508:	2600      	movs	r6, #0
    750a:	4681      	mov	r9, r0
    750c:	469b      	mov	fp, r3
    750e:	e7c9      	b.n	74a4 <__aeabi_dmul+0x48>
    7510:	0032      	movs	r2, r6
    7512:	4658      	mov	r0, fp
    7514:	9b01      	ldr	r3, [sp, #4]
    7516:	4661      	mov	r1, ip
    7518:	9100      	str	r1, [sp, #0]
    751a:	2802      	cmp	r0, #2
    751c:	d100      	bne.n	7520 <__aeabi_dmul+0xc4>
    751e:	e075      	b.n	760c <__aeabi_dmul+0x1b0>
    7520:	2803      	cmp	r0, #3
    7522:	d100      	bne.n	7526 <__aeabi_dmul+0xca>
    7524:	e1fe      	b.n	7924 <__aeabi_dmul+0x4c8>
    7526:	2801      	cmp	r0, #1
    7528:	d000      	beq.n	752c <__aeabi_dmul+0xd0>
    752a:	e12c      	b.n	7786 <__aeabi_dmul+0x32a>
    752c:	2300      	movs	r3, #0
    752e:	2700      	movs	r7, #0
    7530:	2600      	movs	r6, #0
    7532:	2500      	movs	r5, #0
    7534:	033f      	lsls	r7, r7, #12
    7536:	0d2a      	lsrs	r2, r5, #20
    7538:	0b3f      	lsrs	r7, r7, #12
    753a:	48b3      	ldr	r0, [pc, #716]	; (7808 <__aeabi_dmul+0x3ac>)
    753c:	0512      	lsls	r2, r2, #20
    753e:	433a      	orrs	r2, r7
    7540:	4002      	ands	r2, r0
    7542:	051b      	lsls	r3, r3, #20
    7544:	4313      	orrs	r3, r2
    7546:	9a00      	ldr	r2, [sp, #0]
    7548:	005b      	lsls	r3, r3, #1
    754a:	07d1      	lsls	r1, r2, #31
    754c:	085b      	lsrs	r3, r3, #1
    754e:	430b      	orrs	r3, r1
    7550:	0030      	movs	r0, r6
    7552:	0019      	movs	r1, r3
    7554:	b007      	add	sp, #28
    7556:	bc3c      	pop	{r2, r3, r4, r5}
    7558:	4690      	mov	r8, r2
    755a:	4699      	mov	r9, r3
    755c:	46a2      	mov	sl, r4
    755e:	46ab      	mov	fp, r5
    7560:	bdf0      	pop	{r4, r5, r6, r7, pc}
    7562:	465b      	mov	r3, fp
    7564:	433b      	orrs	r3, r7
    7566:	9301      	str	r3, [sp, #4]
    7568:	d100      	bne.n	756c <__aeabi_dmul+0x110>
    756a:	e12f      	b.n	77cc <__aeabi_dmul+0x370>
    756c:	2f00      	cmp	r7, #0
    756e:	d100      	bne.n	7572 <__aeabi_dmul+0x116>
    7570:	e1a5      	b.n	78be <__aeabi_dmul+0x462>
    7572:	0038      	movs	r0, r7
    7574:	f000 fd94 	bl	80a0 <__clzsi2>
    7578:	0003      	movs	r3, r0
    757a:	3b0b      	subs	r3, #11
    757c:	2b1c      	cmp	r3, #28
    757e:	dd00      	ble.n	7582 <__aeabi_dmul+0x126>
    7580:	e196      	b.n	78b0 <__aeabi_dmul+0x454>
    7582:	221d      	movs	r2, #29
    7584:	1ad3      	subs	r3, r2, r3
    7586:	465a      	mov	r2, fp
    7588:	0001      	movs	r1, r0
    758a:	40da      	lsrs	r2, r3
    758c:	465e      	mov	r6, fp
    758e:	3908      	subs	r1, #8
    7590:	408f      	lsls	r7, r1
    7592:	0013      	movs	r3, r2
    7594:	408e      	lsls	r6, r1
    7596:	433b      	orrs	r3, r7
    7598:	9301      	str	r3, [sp, #4]
    759a:	4b9c      	ldr	r3, [pc, #624]	; (780c <__aeabi_dmul+0x3b0>)
    759c:	2700      	movs	r7, #0
    759e:	1a1b      	subs	r3, r3, r0
    75a0:	4699      	mov	r9, r3
    75a2:	2300      	movs	r3, #0
    75a4:	469b      	mov	fp, r3
    75a6:	e77d      	b.n	74a4 <__aeabi_dmul+0x48>
    75a8:	4641      	mov	r1, r8
    75aa:	4653      	mov	r3, sl
    75ac:	430b      	orrs	r3, r1
    75ae:	4993      	ldr	r1, [pc, #588]	; (77fc <__aeabi_dmul+0x3a0>)
    75b0:	468c      	mov	ip, r1
    75b2:	44e1      	add	r9, ip
    75b4:	2b00      	cmp	r3, #0
    75b6:	d000      	beq.n	75ba <__aeabi_dmul+0x15e>
    75b8:	e11a      	b.n	77f0 <__aeabi_dmul+0x394>
    75ba:	2202      	movs	r2, #2
    75bc:	2002      	movs	r0, #2
    75be:	4317      	orrs	r7, r2
    75c0:	2200      	movs	r2, #0
    75c2:	e78c      	b.n	74de <__aeabi_dmul+0x82>
    75c4:	4313      	orrs	r3, r2
    75c6:	d100      	bne.n	75ca <__aeabi_dmul+0x16e>
    75c8:	e10d      	b.n	77e6 <__aeabi_dmul+0x38a>
    75ca:	4643      	mov	r3, r8
    75cc:	2b00      	cmp	r3, #0
    75ce:	d100      	bne.n	75d2 <__aeabi_dmul+0x176>
    75d0:	e181      	b.n	78d6 <__aeabi_dmul+0x47a>
    75d2:	4640      	mov	r0, r8
    75d4:	f000 fd64 	bl	80a0 <__clzsi2>
    75d8:	0002      	movs	r2, r0
    75da:	3a0b      	subs	r2, #11
    75dc:	2a1c      	cmp	r2, #28
    75de:	dd00      	ble.n	75e2 <__aeabi_dmul+0x186>
    75e0:	e172      	b.n	78c8 <__aeabi_dmul+0x46c>
    75e2:	0001      	movs	r1, r0
    75e4:	4643      	mov	r3, r8
    75e6:	3908      	subs	r1, #8
    75e8:	408b      	lsls	r3, r1
    75ea:	4698      	mov	r8, r3
    75ec:	231d      	movs	r3, #29
    75ee:	1a9a      	subs	r2, r3, r2
    75f0:	4653      	mov	r3, sl
    75f2:	40d3      	lsrs	r3, r2
    75f4:	001a      	movs	r2, r3
    75f6:	4643      	mov	r3, r8
    75f8:	4313      	orrs	r3, r2
    75fa:	4652      	mov	r2, sl
    75fc:	408a      	lsls	r2, r1
    75fe:	4649      	mov	r1, r9
    7600:	1a08      	subs	r0, r1, r0
    7602:	4982      	ldr	r1, [pc, #520]	; (780c <__aeabi_dmul+0x3b0>)
    7604:	4689      	mov	r9, r1
    7606:	4481      	add	r9, r0
    7608:	2000      	movs	r0, #0
    760a:	e768      	b.n	74de <__aeabi_dmul+0x82>
    760c:	4b7b      	ldr	r3, [pc, #492]	; (77fc <__aeabi_dmul+0x3a0>)
    760e:	2700      	movs	r7, #0
    7610:	2600      	movs	r6, #0
    7612:	e78e      	b.n	7532 <__aeabi_dmul+0xd6>
    7614:	0c14      	lsrs	r4, r2, #16
    7616:	0412      	lsls	r2, r2, #16
    7618:	0c12      	lsrs	r2, r2, #16
    761a:	0011      	movs	r1, r2
    761c:	0c37      	lsrs	r7, r6, #16
    761e:	0436      	lsls	r6, r6, #16
    7620:	0c35      	lsrs	r5, r6, #16
    7622:	4379      	muls	r1, r7
    7624:	0028      	movs	r0, r5
    7626:	468c      	mov	ip, r1
    7628:	002e      	movs	r6, r5
    762a:	4360      	muls	r0, r4
    762c:	4460      	add	r0, ip
    762e:	4683      	mov	fp, r0
    7630:	4356      	muls	r6, r2
    7632:	0021      	movs	r1, r4
    7634:	0c30      	lsrs	r0, r6, #16
    7636:	4680      	mov	r8, r0
    7638:	4658      	mov	r0, fp
    763a:	4379      	muls	r1, r7
    763c:	4440      	add	r0, r8
    763e:	9102      	str	r1, [sp, #8]
    7640:	4584      	cmp	ip, r0
    7642:	d906      	bls.n	7652 <__aeabi_dmul+0x1f6>
    7644:	4688      	mov	r8, r1
    7646:	2180      	movs	r1, #128	; 0x80
    7648:	0249      	lsls	r1, r1, #9
    764a:	468c      	mov	ip, r1
    764c:	44e0      	add	r8, ip
    764e:	4641      	mov	r1, r8
    7650:	9102      	str	r1, [sp, #8]
    7652:	0436      	lsls	r6, r6, #16
    7654:	0c01      	lsrs	r1, r0, #16
    7656:	0c36      	lsrs	r6, r6, #16
    7658:	0400      	lsls	r0, r0, #16
    765a:	468b      	mov	fp, r1
    765c:	1981      	adds	r1, r0, r6
    765e:	0c1e      	lsrs	r6, r3, #16
    7660:	041b      	lsls	r3, r3, #16
    7662:	0c1b      	lsrs	r3, r3, #16
    7664:	9103      	str	r1, [sp, #12]
    7666:	0019      	movs	r1, r3
    7668:	4379      	muls	r1, r7
    766a:	468c      	mov	ip, r1
    766c:	0028      	movs	r0, r5
    766e:	4375      	muls	r5, r6
    7670:	4465      	add	r5, ip
    7672:	46a8      	mov	r8, r5
    7674:	4358      	muls	r0, r3
    7676:	0c05      	lsrs	r5, r0, #16
    7678:	4445      	add	r5, r8
    767a:	4377      	muls	r7, r6
    767c:	42a9      	cmp	r1, r5
    767e:	d903      	bls.n	7688 <__aeabi_dmul+0x22c>
    7680:	2180      	movs	r1, #128	; 0x80
    7682:	0249      	lsls	r1, r1, #9
    7684:	468c      	mov	ip, r1
    7686:	4467      	add	r7, ip
    7688:	0c29      	lsrs	r1, r5, #16
    768a:	468c      	mov	ip, r1
    768c:	0039      	movs	r1, r7
    768e:	0400      	lsls	r0, r0, #16
    7690:	0c00      	lsrs	r0, r0, #16
    7692:	042d      	lsls	r5, r5, #16
    7694:	182d      	adds	r5, r5, r0
    7696:	4461      	add	r1, ip
    7698:	44ab      	add	fp, r5
    769a:	9105      	str	r1, [sp, #20]
    769c:	4659      	mov	r1, fp
    769e:	9104      	str	r1, [sp, #16]
    76a0:	9901      	ldr	r1, [sp, #4]
    76a2:	040f      	lsls	r7, r1, #16
    76a4:	0c3f      	lsrs	r7, r7, #16
    76a6:	0c08      	lsrs	r0, r1, #16
    76a8:	0039      	movs	r1, r7
    76aa:	4351      	muls	r1, r2
    76ac:	4342      	muls	r2, r0
    76ae:	4690      	mov	r8, r2
    76b0:	0002      	movs	r2, r0
    76b2:	468c      	mov	ip, r1
    76b4:	0c09      	lsrs	r1, r1, #16
    76b6:	468b      	mov	fp, r1
    76b8:	4362      	muls	r2, r4
    76ba:	437c      	muls	r4, r7
    76bc:	4444      	add	r4, r8
    76be:	445c      	add	r4, fp
    76c0:	45a0      	cmp	r8, r4
    76c2:	d903      	bls.n	76cc <__aeabi_dmul+0x270>
    76c4:	2180      	movs	r1, #128	; 0x80
    76c6:	0249      	lsls	r1, r1, #9
    76c8:	4688      	mov	r8, r1
    76ca:	4442      	add	r2, r8
    76cc:	0c21      	lsrs	r1, r4, #16
    76ce:	4688      	mov	r8, r1
    76d0:	4661      	mov	r1, ip
    76d2:	0409      	lsls	r1, r1, #16
    76d4:	0c09      	lsrs	r1, r1, #16
    76d6:	468c      	mov	ip, r1
    76d8:	0039      	movs	r1, r7
    76da:	4359      	muls	r1, r3
    76dc:	4343      	muls	r3, r0
    76de:	4370      	muls	r0, r6
    76e0:	437e      	muls	r6, r7
    76e2:	0c0f      	lsrs	r7, r1, #16
    76e4:	18f6      	adds	r6, r6, r3
    76e6:	0424      	lsls	r4, r4, #16
    76e8:	19be      	adds	r6, r7, r6
    76ea:	4464      	add	r4, ip
    76ec:	4442      	add	r2, r8
    76ee:	468c      	mov	ip, r1
    76f0:	42b3      	cmp	r3, r6
    76f2:	d903      	bls.n	76fc <__aeabi_dmul+0x2a0>
    76f4:	2380      	movs	r3, #128	; 0x80
    76f6:	025b      	lsls	r3, r3, #9
    76f8:	4698      	mov	r8, r3
    76fa:	4440      	add	r0, r8
    76fc:	9b02      	ldr	r3, [sp, #8]
    76fe:	4661      	mov	r1, ip
    7700:	4698      	mov	r8, r3
    7702:	9b04      	ldr	r3, [sp, #16]
    7704:	0437      	lsls	r7, r6, #16
    7706:	4443      	add	r3, r8
    7708:	469b      	mov	fp, r3
    770a:	45ab      	cmp	fp, r5
    770c:	41ad      	sbcs	r5, r5
    770e:	426b      	negs	r3, r5
    7710:	040d      	lsls	r5, r1, #16
    7712:	9905      	ldr	r1, [sp, #20]
    7714:	0c2d      	lsrs	r5, r5, #16
    7716:	468c      	mov	ip, r1
    7718:	197f      	adds	r7, r7, r5
    771a:	4467      	add	r7, ip
    771c:	18fd      	adds	r5, r7, r3
    771e:	46a8      	mov	r8, r5
    7720:	465d      	mov	r5, fp
    7722:	192d      	adds	r5, r5, r4
    7724:	42a5      	cmp	r5, r4
    7726:	41a4      	sbcs	r4, r4
    7728:	4693      	mov	fp, r2
    772a:	4264      	negs	r4, r4
    772c:	46a4      	mov	ip, r4
    772e:	44c3      	add	fp, r8
    7730:	44dc      	add	ip, fp
    7732:	428f      	cmp	r7, r1
    7734:	41bf      	sbcs	r7, r7
    7736:	4598      	cmp	r8, r3
    7738:	419b      	sbcs	r3, r3
    773a:	4593      	cmp	fp, r2
    773c:	4192      	sbcs	r2, r2
    773e:	45a4      	cmp	ip, r4
    7740:	41a4      	sbcs	r4, r4
    7742:	425b      	negs	r3, r3
    7744:	427f      	negs	r7, r7
    7746:	431f      	orrs	r7, r3
    7748:	0c36      	lsrs	r6, r6, #16
    774a:	4252      	negs	r2, r2
    774c:	4264      	negs	r4, r4
    774e:	19bf      	adds	r7, r7, r6
    7750:	4322      	orrs	r2, r4
    7752:	18bf      	adds	r7, r7, r2
    7754:	4662      	mov	r2, ip
    7756:	1838      	adds	r0, r7, r0
    7758:	0243      	lsls	r3, r0, #9
    775a:	0dd2      	lsrs	r2, r2, #23
    775c:	9903      	ldr	r1, [sp, #12]
    775e:	4313      	orrs	r3, r2
    7760:	026a      	lsls	r2, r5, #9
    7762:	430a      	orrs	r2, r1
    7764:	1e50      	subs	r0, r2, #1
    7766:	4182      	sbcs	r2, r0
    7768:	4661      	mov	r1, ip
    776a:	0ded      	lsrs	r5, r5, #23
    776c:	432a      	orrs	r2, r5
    776e:	024e      	lsls	r6, r1, #9
    7770:	4332      	orrs	r2, r6
    7772:	01d9      	lsls	r1, r3, #7
    7774:	d400      	bmi.n	7778 <__aeabi_dmul+0x31c>
    7776:	e0b3      	b.n	78e0 <__aeabi_dmul+0x484>
    7778:	2601      	movs	r6, #1
    777a:	0850      	lsrs	r0, r2, #1
    777c:	4032      	ands	r2, r6
    777e:	4302      	orrs	r2, r0
    7780:	07de      	lsls	r6, r3, #31
    7782:	4332      	orrs	r2, r6
    7784:	085b      	lsrs	r3, r3, #1
    7786:	4c22      	ldr	r4, [pc, #136]	; (7810 <__aeabi_dmul+0x3b4>)
    7788:	4454      	add	r4, sl
    778a:	2c00      	cmp	r4, #0
    778c:	dd62      	ble.n	7854 <__aeabi_dmul+0x3f8>
    778e:	0751      	lsls	r1, r2, #29
    7790:	d009      	beq.n	77a6 <__aeabi_dmul+0x34a>
    7792:	200f      	movs	r0, #15
    7794:	4010      	ands	r0, r2
    7796:	2804      	cmp	r0, #4
    7798:	d005      	beq.n	77a6 <__aeabi_dmul+0x34a>
    779a:	1d10      	adds	r0, r2, #4
    779c:	4290      	cmp	r0, r2
    779e:	4192      	sbcs	r2, r2
    77a0:	4252      	negs	r2, r2
    77a2:	189b      	adds	r3, r3, r2
    77a4:	0002      	movs	r2, r0
    77a6:	01d9      	lsls	r1, r3, #7
    77a8:	d504      	bpl.n	77b4 <__aeabi_dmul+0x358>
    77aa:	2480      	movs	r4, #128	; 0x80
    77ac:	4819      	ldr	r0, [pc, #100]	; (7814 <__aeabi_dmul+0x3b8>)
    77ae:	00e4      	lsls	r4, r4, #3
    77b0:	4003      	ands	r3, r0
    77b2:	4454      	add	r4, sl
    77b4:	4818      	ldr	r0, [pc, #96]	; (7818 <__aeabi_dmul+0x3bc>)
    77b6:	4284      	cmp	r4, r0
    77b8:	dd00      	ble.n	77bc <__aeabi_dmul+0x360>
    77ba:	e727      	b.n	760c <__aeabi_dmul+0x1b0>
    77bc:	075e      	lsls	r6, r3, #29
    77be:	025b      	lsls	r3, r3, #9
    77c0:	08d2      	lsrs	r2, r2, #3
    77c2:	0b1f      	lsrs	r7, r3, #12
    77c4:	0563      	lsls	r3, r4, #21
    77c6:	4316      	orrs	r6, r2
    77c8:	0d5b      	lsrs	r3, r3, #21
    77ca:	e6b2      	b.n	7532 <__aeabi_dmul+0xd6>
    77cc:	2300      	movs	r3, #0
    77ce:	4699      	mov	r9, r3
    77d0:	3301      	adds	r3, #1
    77d2:	2704      	movs	r7, #4
    77d4:	2600      	movs	r6, #0
    77d6:	469b      	mov	fp, r3
    77d8:	e664      	b.n	74a4 <__aeabi_dmul+0x48>
    77da:	2303      	movs	r3, #3
    77dc:	9701      	str	r7, [sp, #4]
    77de:	4681      	mov	r9, r0
    77e0:	270c      	movs	r7, #12
    77e2:	469b      	mov	fp, r3
    77e4:	e65e      	b.n	74a4 <__aeabi_dmul+0x48>
    77e6:	2201      	movs	r2, #1
    77e8:	2001      	movs	r0, #1
    77ea:	4317      	orrs	r7, r2
    77ec:	2200      	movs	r2, #0
    77ee:	e676      	b.n	74de <__aeabi_dmul+0x82>
    77f0:	2303      	movs	r3, #3
    77f2:	2003      	movs	r0, #3
    77f4:	431f      	orrs	r7, r3
    77f6:	4643      	mov	r3, r8
    77f8:	e671      	b.n	74de <__aeabi_dmul+0x82>
    77fa:	46c0      	nop			; (mov r8, r8)
    77fc:	000007ff 	.word	0x000007ff
    7800:	fffffc01 	.word	0xfffffc01
    7804:	00009644 	.word	0x00009644
    7808:	800fffff 	.word	0x800fffff
    780c:	fffffc0d 	.word	0xfffffc0d
    7810:	000003ff 	.word	0x000003ff
    7814:	feffffff 	.word	0xfeffffff
    7818:	000007fe 	.word	0x000007fe
    781c:	2300      	movs	r3, #0
    781e:	2780      	movs	r7, #128	; 0x80
    7820:	9300      	str	r3, [sp, #0]
    7822:	033f      	lsls	r7, r7, #12
    7824:	2600      	movs	r6, #0
    7826:	4b43      	ldr	r3, [pc, #268]	; (7934 <__aeabi_dmul+0x4d8>)
    7828:	e683      	b.n	7532 <__aeabi_dmul+0xd6>
    782a:	9b01      	ldr	r3, [sp, #4]
    782c:	0032      	movs	r2, r6
    782e:	46a4      	mov	ip, r4
    7830:	4658      	mov	r0, fp
    7832:	e670      	b.n	7516 <__aeabi_dmul+0xba>
    7834:	46ac      	mov	ip, r5
    7836:	e66e      	b.n	7516 <__aeabi_dmul+0xba>
    7838:	2780      	movs	r7, #128	; 0x80
    783a:	9901      	ldr	r1, [sp, #4]
    783c:	033f      	lsls	r7, r7, #12
    783e:	4239      	tst	r1, r7
    7840:	d02d      	beq.n	789e <__aeabi_dmul+0x442>
    7842:	423b      	tst	r3, r7
    7844:	d12b      	bne.n	789e <__aeabi_dmul+0x442>
    7846:	431f      	orrs	r7, r3
    7848:	033f      	lsls	r7, r7, #12
    784a:	0b3f      	lsrs	r7, r7, #12
    784c:	9500      	str	r5, [sp, #0]
    784e:	0016      	movs	r6, r2
    7850:	4b38      	ldr	r3, [pc, #224]	; (7934 <__aeabi_dmul+0x4d8>)
    7852:	e66e      	b.n	7532 <__aeabi_dmul+0xd6>
    7854:	2501      	movs	r5, #1
    7856:	1b2d      	subs	r5, r5, r4
    7858:	2d38      	cmp	r5, #56	; 0x38
    785a:	dd00      	ble.n	785e <__aeabi_dmul+0x402>
    785c:	e666      	b.n	752c <__aeabi_dmul+0xd0>
    785e:	2d1f      	cmp	r5, #31
    7860:	dc40      	bgt.n	78e4 <__aeabi_dmul+0x488>
    7862:	4835      	ldr	r0, [pc, #212]	; (7938 <__aeabi_dmul+0x4dc>)
    7864:	001c      	movs	r4, r3
    7866:	4450      	add	r0, sl
    7868:	0016      	movs	r6, r2
    786a:	4082      	lsls	r2, r0
    786c:	4084      	lsls	r4, r0
    786e:	40ee      	lsrs	r6, r5
    7870:	1e50      	subs	r0, r2, #1
    7872:	4182      	sbcs	r2, r0
    7874:	4334      	orrs	r4, r6
    7876:	4314      	orrs	r4, r2
    7878:	40eb      	lsrs	r3, r5
    787a:	0762      	lsls	r2, r4, #29
    787c:	d009      	beq.n	7892 <__aeabi_dmul+0x436>
    787e:	220f      	movs	r2, #15
    7880:	4022      	ands	r2, r4
    7882:	2a04      	cmp	r2, #4
    7884:	d005      	beq.n	7892 <__aeabi_dmul+0x436>
    7886:	0022      	movs	r2, r4
    7888:	1d14      	adds	r4, r2, #4
    788a:	4294      	cmp	r4, r2
    788c:	4180      	sbcs	r0, r0
    788e:	4240      	negs	r0, r0
    7890:	181b      	adds	r3, r3, r0
    7892:	021a      	lsls	r2, r3, #8
    7894:	d53e      	bpl.n	7914 <__aeabi_dmul+0x4b8>
    7896:	2301      	movs	r3, #1
    7898:	2700      	movs	r7, #0
    789a:	2600      	movs	r6, #0
    789c:	e649      	b.n	7532 <__aeabi_dmul+0xd6>
    789e:	2780      	movs	r7, #128	; 0x80
    78a0:	9b01      	ldr	r3, [sp, #4]
    78a2:	033f      	lsls	r7, r7, #12
    78a4:	431f      	orrs	r7, r3
    78a6:	033f      	lsls	r7, r7, #12
    78a8:	0b3f      	lsrs	r7, r7, #12
    78aa:	9400      	str	r4, [sp, #0]
    78ac:	4b21      	ldr	r3, [pc, #132]	; (7934 <__aeabi_dmul+0x4d8>)
    78ae:	e640      	b.n	7532 <__aeabi_dmul+0xd6>
    78b0:	0003      	movs	r3, r0
    78b2:	465a      	mov	r2, fp
    78b4:	3b28      	subs	r3, #40	; 0x28
    78b6:	409a      	lsls	r2, r3
    78b8:	2600      	movs	r6, #0
    78ba:	9201      	str	r2, [sp, #4]
    78bc:	e66d      	b.n	759a <__aeabi_dmul+0x13e>
    78be:	4658      	mov	r0, fp
    78c0:	f000 fbee 	bl	80a0 <__clzsi2>
    78c4:	3020      	adds	r0, #32
    78c6:	e657      	b.n	7578 <__aeabi_dmul+0x11c>
    78c8:	0003      	movs	r3, r0
    78ca:	4652      	mov	r2, sl
    78cc:	3b28      	subs	r3, #40	; 0x28
    78ce:	409a      	lsls	r2, r3
    78d0:	0013      	movs	r3, r2
    78d2:	2200      	movs	r2, #0
    78d4:	e693      	b.n	75fe <__aeabi_dmul+0x1a2>
    78d6:	4650      	mov	r0, sl
    78d8:	f000 fbe2 	bl	80a0 <__clzsi2>
    78dc:	3020      	adds	r0, #32
    78de:	e67b      	b.n	75d8 <__aeabi_dmul+0x17c>
    78e0:	46ca      	mov	sl, r9
    78e2:	e750      	b.n	7786 <__aeabi_dmul+0x32a>
    78e4:	201f      	movs	r0, #31
    78e6:	001e      	movs	r6, r3
    78e8:	4240      	negs	r0, r0
    78ea:	1b04      	subs	r4, r0, r4
    78ec:	40e6      	lsrs	r6, r4
    78ee:	2d20      	cmp	r5, #32
    78f0:	d003      	beq.n	78fa <__aeabi_dmul+0x49e>
    78f2:	4c12      	ldr	r4, [pc, #72]	; (793c <__aeabi_dmul+0x4e0>)
    78f4:	4454      	add	r4, sl
    78f6:	40a3      	lsls	r3, r4
    78f8:	431a      	orrs	r2, r3
    78fa:	1e50      	subs	r0, r2, #1
    78fc:	4182      	sbcs	r2, r0
    78fe:	4332      	orrs	r2, r6
    7900:	2607      	movs	r6, #7
    7902:	2700      	movs	r7, #0
    7904:	4016      	ands	r6, r2
    7906:	d009      	beq.n	791c <__aeabi_dmul+0x4c0>
    7908:	200f      	movs	r0, #15
    790a:	2300      	movs	r3, #0
    790c:	4010      	ands	r0, r2
    790e:	0014      	movs	r4, r2
    7910:	2804      	cmp	r0, #4
    7912:	d1b9      	bne.n	7888 <__aeabi_dmul+0x42c>
    7914:	0022      	movs	r2, r4
    7916:	075e      	lsls	r6, r3, #29
    7918:	025b      	lsls	r3, r3, #9
    791a:	0b1f      	lsrs	r7, r3, #12
    791c:	08d2      	lsrs	r2, r2, #3
    791e:	4316      	orrs	r6, r2
    7920:	2300      	movs	r3, #0
    7922:	e606      	b.n	7532 <__aeabi_dmul+0xd6>
    7924:	2780      	movs	r7, #128	; 0x80
    7926:	033f      	lsls	r7, r7, #12
    7928:	431f      	orrs	r7, r3
    792a:	033f      	lsls	r7, r7, #12
    792c:	0b3f      	lsrs	r7, r7, #12
    792e:	0016      	movs	r6, r2
    7930:	4b00      	ldr	r3, [pc, #0]	; (7934 <__aeabi_dmul+0x4d8>)
    7932:	e5fe      	b.n	7532 <__aeabi_dmul+0xd6>
    7934:	000007ff 	.word	0x000007ff
    7938:	0000041e 	.word	0x0000041e
    793c:	0000043e 	.word	0x0000043e

00007940 <__aeabi_dsub>:
__aeabi_dsub():
    7940:	b5f8      	push	{r3, r4, r5, r6, r7, lr}
    7942:	4657      	mov	r7, sl
    7944:	464e      	mov	r6, r9
    7946:	4645      	mov	r5, r8
    7948:	46de      	mov	lr, fp
    794a:	000c      	movs	r4, r1
    794c:	0309      	lsls	r1, r1, #12
    794e:	b5e0      	push	{r5, r6, r7, lr}
    7950:	0a49      	lsrs	r1, r1, #9
    7952:	0f46      	lsrs	r6, r0, #29
    7954:	005f      	lsls	r7, r3, #1
    7956:	4331      	orrs	r1, r6
    7958:	031e      	lsls	r6, r3, #12
    795a:	0fdb      	lsrs	r3, r3, #31
    795c:	0a76      	lsrs	r6, r6, #9
    795e:	469b      	mov	fp, r3
    7960:	0f53      	lsrs	r3, r2, #29
    7962:	4333      	orrs	r3, r6
    7964:	4ec8      	ldr	r6, [pc, #800]	; (7c88 <__aeabi_dsub+0x348>)
    7966:	0065      	lsls	r5, r4, #1
    7968:	00c0      	lsls	r0, r0, #3
    796a:	0fe4      	lsrs	r4, r4, #31
    796c:	00d2      	lsls	r2, r2, #3
    796e:	0d6d      	lsrs	r5, r5, #21
    7970:	46a2      	mov	sl, r4
    7972:	4681      	mov	r9, r0
    7974:	0d7f      	lsrs	r7, r7, #21
    7976:	469c      	mov	ip, r3
    7978:	4690      	mov	r8, r2
    797a:	42b7      	cmp	r7, r6
    797c:	d100      	bne.n	7980 <__aeabi_dsub+0x40>
    797e:	e0b9      	b.n	7af4 <__aeabi_dsub+0x1b4>
    7980:	465b      	mov	r3, fp
    7982:	2601      	movs	r6, #1
    7984:	4073      	eors	r3, r6
    7986:	469b      	mov	fp, r3
    7988:	1bee      	subs	r6, r5, r7
    798a:	45a3      	cmp	fp, r4
    798c:	d100      	bne.n	7990 <__aeabi_dsub+0x50>
    798e:	e083      	b.n	7a98 <__aeabi_dsub+0x158>
    7990:	2e00      	cmp	r6, #0
    7992:	dd63      	ble.n	7a5c <__aeabi_dsub+0x11c>
    7994:	2f00      	cmp	r7, #0
    7996:	d000      	beq.n	799a <__aeabi_dsub+0x5a>
    7998:	e0b1      	b.n	7afe <__aeabi_dsub+0x1be>
    799a:	4663      	mov	r3, ip
    799c:	4313      	orrs	r3, r2
    799e:	d100      	bne.n	79a2 <__aeabi_dsub+0x62>
    79a0:	e123      	b.n	7bea <__aeabi_dsub+0x2aa>
    79a2:	1e73      	subs	r3, r6, #1
    79a4:	2b00      	cmp	r3, #0
    79a6:	d000      	beq.n	79aa <__aeabi_dsub+0x6a>
    79a8:	e1ba      	b.n	7d20 <__aeabi_dsub+0x3e0>
    79aa:	1a86      	subs	r6, r0, r2
    79ac:	4663      	mov	r3, ip
    79ae:	42b0      	cmp	r0, r6
    79b0:	4180      	sbcs	r0, r0
    79b2:	2501      	movs	r5, #1
    79b4:	1ac9      	subs	r1, r1, r3
    79b6:	4240      	negs	r0, r0
    79b8:	1a09      	subs	r1, r1, r0
    79ba:	020b      	lsls	r3, r1, #8
    79bc:	d400      	bmi.n	79c0 <__aeabi_dsub+0x80>
    79be:	e147      	b.n	7c50 <__aeabi_dsub+0x310>
    79c0:	0249      	lsls	r1, r1, #9
    79c2:	0a4b      	lsrs	r3, r1, #9
    79c4:	4698      	mov	r8, r3
    79c6:	4643      	mov	r3, r8
    79c8:	2b00      	cmp	r3, #0
    79ca:	d100      	bne.n	79ce <__aeabi_dsub+0x8e>
    79cc:	e189      	b.n	7ce2 <__aeabi_dsub+0x3a2>
    79ce:	4640      	mov	r0, r8
    79d0:	f000 fb66 	bl	80a0 <__clzsi2>
    79d4:	0003      	movs	r3, r0
    79d6:	3b08      	subs	r3, #8
    79d8:	2b1f      	cmp	r3, #31
    79da:	dd00      	ble.n	79de <__aeabi_dsub+0x9e>
    79dc:	e17c      	b.n	7cd8 <__aeabi_dsub+0x398>
    79de:	2220      	movs	r2, #32
    79e0:	0030      	movs	r0, r6
    79e2:	1ad2      	subs	r2, r2, r3
    79e4:	4641      	mov	r1, r8
    79e6:	40d0      	lsrs	r0, r2
    79e8:	4099      	lsls	r1, r3
    79ea:	0002      	movs	r2, r0
    79ec:	409e      	lsls	r6, r3
    79ee:	430a      	orrs	r2, r1
    79f0:	429d      	cmp	r5, r3
    79f2:	dd00      	ble.n	79f6 <__aeabi_dsub+0xb6>
    79f4:	e16a      	b.n	7ccc <__aeabi_dsub+0x38c>
    79f6:	1b5d      	subs	r5, r3, r5
    79f8:	1c6b      	adds	r3, r5, #1
    79fa:	2b1f      	cmp	r3, #31
    79fc:	dd00      	ble.n	7a00 <__aeabi_dsub+0xc0>
    79fe:	e194      	b.n	7d2a <__aeabi_dsub+0x3ea>
    7a00:	2120      	movs	r1, #32
    7a02:	0010      	movs	r0, r2
    7a04:	0035      	movs	r5, r6
    7a06:	1ac9      	subs	r1, r1, r3
    7a08:	408e      	lsls	r6, r1
    7a0a:	40da      	lsrs	r2, r3
    7a0c:	4088      	lsls	r0, r1
    7a0e:	40dd      	lsrs	r5, r3
    7a10:	1e71      	subs	r1, r6, #1
    7a12:	418e      	sbcs	r6, r1
    7a14:	0011      	movs	r1, r2
    7a16:	2207      	movs	r2, #7
    7a18:	4328      	orrs	r0, r5
    7a1a:	2500      	movs	r5, #0
    7a1c:	4306      	orrs	r6, r0
    7a1e:	4032      	ands	r2, r6
    7a20:	2a00      	cmp	r2, #0
    7a22:	d009      	beq.n	7a38 <__aeabi_dsub+0xf8>
    7a24:	230f      	movs	r3, #15
    7a26:	4033      	ands	r3, r6
    7a28:	2b04      	cmp	r3, #4
    7a2a:	d005      	beq.n	7a38 <__aeabi_dsub+0xf8>
    7a2c:	1d33      	adds	r3, r6, #4
    7a2e:	42b3      	cmp	r3, r6
    7a30:	41b6      	sbcs	r6, r6
    7a32:	4276      	negs	r6, r6
    7a34:	1989      	adds	r1, r1, r6
    7a36:	001e      	movs	r6, r3
    7a38:	020b      	lsls	r3, r1, #8
    7a3a:	d400      	bmi.n	7a3e <__aeabi_dsub+0xfe>
    7a3c:	e23d      	b.n	7eba <__aeabi_dsub+0x57a>
    7a3e:	1c6a      	adds	r2, r5, #1
    7a40:	4b91      	ldr	r3, [pc, #580]	; (7c88 <__aeabi_dsub+0x348>)
    7a42:	0555      	lsls	r5, r2, #21
    7a44:	0d6d      	lsrs	r5, r5, #21
    7a46:	429a      	cmp	r2, r3
    7a48:	d100      	bne.n	7a4c <__aeabi_dsub+0x10c>
    7a4a:	e119      	b.n	7c80 <__aeabi_dsub+0x340>
    7a4c:	4a8f      	ldr	r2, [pc, #572]	; (7c8c <__aeabi_dsub+0x34c>)
    7a4e:	08f6      	lsrs	r6, r6, #3
    7a50:	400a      	ands	r2, r1
    7a52:	0757      	lsls	r7, r2, #29
    7a54:	0252      	lsls	r2, r2, #9
    7a56:	4337      	orrs	r7, r6
    7a58:	0b12      	lsrs	r2, r2, #12
    7a5a:	e09b      	b.n	7b94 <__aeabi_dsub+0x254>
    7a5c:	2e00      	cmp	r6, #0
    7a5e:	d000      	beq.n	7a62 <__aeabi_dsub+0x122>
    7a60:	e0c5      	b.n	7bee <__aeabi_dsub+0x2ae>
    7a62:	1c6e      	adds	r6, r5, #1
    7a64:	0576      	lsls	r6, r6, #21
    7a66:	0d76      	lsrs	r6, r6, #21
    7a68:	2e01      	cmp	r6, #1
    7a6a:	dc00      	bgt.n	7a6e <__aeabi_dsub+0x12e>
    7a6c:	e148      	b.n	7d00 <__aeabi_dsub+0x3c0>
    7a6e:	4667      	mov	r7, ip
    7a70:	1a86      	subs	r6, r0, r2
    7a72:	1bcb      	subs	r3, r1, r7
    7a74:	42b0      	cmp	r0, r6
    7a76:	41bf      	sbcs	r7, r7
    7a78:	427f      	negs	r7, r7
    7a7a:	46b8      	mov	r8, r7
    7a7c:	001f      	movs	r7, r3
    7a7e:	4643      	mov	r3, r8
    7a80:	1aff      	subs	r7, r7, r3
    7a82:	003b      	movs	r3, r7
    7a84:	46b8      	mov	r8, r7
    7a86:	021b      	lsls	r3, r3, #8
    7a88:	d500      	bpl.n	7a8c <__aeabi_dsub+0x14c>
    7a8a:	e15f      	b.n	7d4c <__aeabi_dsub+0x40c>
    7a8c:	4337      	orrs	r7, r6
    7a8e:	d19a      	bne.n	79c6 <__aeabi_dsub+0x86>
    7a90:	2200      	movs	r2, #0
    7a92:	2400      	movs	r4, #0
    7a94:	2500      	movs	r5, #0
    7a96:	e079      	b.n	7b8c <__aeabi_dsub+0x24c>
    7a98:	2e00      	cmp	r6, #0
    7a9a:	dc00      	bgt.n	7a9e <__aeabi_dsub+0x15e>
    7a9c:	e0fa      	b.n	7c94 <__aeabi_dsub+0x354>
    7a9e:	2f00      	cmp	r7, #0
    7aa0:	d100      	bne.n	7aa4 <__aeabi_dsub+0x164>
    7aa2:	e08d      	b.n	7bc0 <__aeabi_dsub+0x280>
    7aa4:	4b78      	ldr	r3, [pc, #480]	; (7c88 <__aeabi_dsub+0x348>)
    7aa6:	429d      	cmp	r5, r3
    7aa8:	d067      	beq.n	7b7a <__aeabi_dsub+0x23a>
    7aaa:	2380      	movs	r3, #128	; 0x80
    7aac:	4667      	mov	r7, ip
    7aae:	041b      	lsls	r3, r3, #16
    7ab0:	431f      	orrs	r7, r3
    7ab2:	46bc      	mov	ip, r7
    7ab4:	2e38      	cmp	r6, #56	; 0x38
    7ab6:	dc00      	bgt.n	7aba <__aeabi_dsub+0x17a>
    7ab8:	e152      	b.n	7d60 <__aeabi_dsub+0x420>
    7aba:	4663      	mov	r3, ip
    7abc:	4313      	orrs	r3, r2
    7abe:	1e5a      	subs	r2, r3, #1
    7ac0:	4193      	sbcs	r3, r2
    7ac2:	181e      	adds	r6, r3, r0
    7ac4:	4286      	cmp	r6, r0
    7ac6:	4180      	sbcs	r0, r0
    7ac8:	4240      	negs	r0, r0
    7aca:	1809      	adds	r1, r1, r0
    7acc:	020b      	lsls	r3, r1, #8
    7ace:	d400      	bmi.n	7ad2 <__aeabi_dsub+0x192>
    7ad0:	e0be      	b.n	7c50 <__aeabi_dsub+0x310>
    7ad2:	4b6d      	ldr	r3, [pc, #436]	; (7c88 <__aeabi_dsub+0x348>)
    7ad4:	3501      	adds	r5, #1
    7ad6:	429d      	cmp	r5, r3
    7ad8:	d100      	bne.n	7adc <__aeabi_dsub+0x19c>
    7ada:	e0d2      	b.n	7c82 <__aeabi_dsub+0x342>
    7adc:	4a6b      	ldr	r2, [pc, #428]	; (7c8c <__aeabi_dsub+0x34c>)
    7ade:	0873      	lsrs	r3, r6, #1
    7ae0:	400a      	ands	r2, r1
    7ae2:	2101      	movs	r1, #1
    7ae4:	400e      	ands	r6, r1
    7ae6:	431e      	orrs	r6, r3
    7ae8:	0851      	lsrs	r1, r2, #1
    7aea:	07d3      	lsls	r3, r2, #31
    7aec:	2207      	movs	r2, #7
    7aee:	431e      	orrs	r6, r3
    7af0:	4032      	ands	r2, r6
    7af2:	e795      	b.n	7a20 <__aeabi_dsub+0xe0>
    7af4:	001e      	movs	r6, r3
    7af6:	4316      	orrs	r6, r2
    7af8:	d000      	beq.n	7afc <__aeabi_dsub+0x1bc>
    7afa:	e745      	b.n	7988 <__aeabi_dsub+0x48>
    7afc:	e740      	b.n	7980 <__aeabi_dsub+0x40>
    7afe:	4b62      	ldr	r3, [pc, #392]	; (7c88 <__aeabi_dsub+0x348>)
    7b00:	429d      	cmp	r5, r3
    7b02:	d03a      	beq.n	7b7a <__aeabi_dsub+0x23a>
    7b04:	2380      	movs	r3, #128	; 0x80
    7b06:	4667      	mov	r7, ip
    7b08:	041b      	lsls	r3, r3, #16
    7b0a:	431f      	orrs	r7, r3
    7b0c:	46bc      	mov	ip, r7
    7b0e:	2e38      	cmp	r6, #56	; 0x38
    7b10:	dd00      	ble.n	7b14 <__aeabi_dsub+0x1d4>
    7b12:	e0eb      	b.n	7cec <__aeabi_dsub+0x3ac>
    7b14:	2e1f      	cmp	r6, #31
    7b16:	dc00      	bgt.n	7b1a <__aeabi_dsub+0x1da>
    7b18:	e13a      	b.n	7d90 <__aeabi_dsub+0x450>
    7b1a:	0033      	movs	r3, r6
    7b1c:	4667      	mov	r7, ip
    7b1e:	3b20      	subs	r3, #32
    7b20:	40df      	lsrs	r7, r3
    7b22:	003b      	movs	r3, r7
    7b24:	2e20      	cmp	r6, #32
    7b26:	d005      	beq.n	7b34 <__aeabi_dsub+0x1f4>
    7b28:	2740      	movs	r7, #64	; 0x40
    7b2a:	1bbf      	subs	r7, r7, r6
    7b2c:	4666      	mov	r6, ip
    7b2e:	40be      	lsls	r6, r7
    7b30:	4332      	orrs	r2, r6
    7b32:	4690      	mov	r8, r2
    7b34:	4646      	mov	r6, r8
    7b36:	1e72      	subs	r2, r6, #1
    7b38:	4196      	sbcs	r6, r2
    7b3a:	4333      	orrs	r3, r6
    7b3c:	e0da      	b.n	7cf4 <__aeabi_dsub+0x3b4>
    7b3e:	2b00      	cmp	r3, #0
    7b40:	d100      	bne.n	7b44 <__aeabi_dsub+0x204>
    7b42:	e214      	b.n	7f6e <__aeabi_dsub+0x62e>
    7b44:	4663      	mov	r3, ip
    7b46:	4313      	orrs	r3, r2
    7b48:	d100      	bne.n	7b4c <__aeabi_dsub+0x20c>
    7b4a:	e168      	b.n	7e1e <__aeabi_dsub+0x4de>
    7b4c:	2380      	movs	r3, #128	; 0x80
    7b4e:	074e      	lsls	r6, r1, #29
    7b50:	08c0      	lsrs	r0, r0, #3
    7b52:	08c9      	lsrs	r1, r1, #3
    7b54:	031b      	lsls	r3, r3, #12
    7b56:	4306      	orrs	r6, r0
    7b58:	4219      	tst	r1, r3
    7b5a:	d008      	beq.n	7b6e <__aeabi_dsub+0x22e>
    7b5c:	4660      	mov	r0, ip
    7b5e:	08c0      	lsrs	r0, r0, #3
    7b60:	4218      	tst	r0, r3
    7b62:	d104      	bne.n	7b6e <__aeabi_dsub+0x22e>
    7b64:	4663      	mov	r3, ip
    7b66:	0001      	movs	r1, r0
    7b68:	08d2      	lsrs	r2, r2, #3
    7b6a:	075e      	lsls	r6, r3, #29
    7b6c:	4316      	orrs	r6, r2
    7b6e:	00f3      	lsls	r3, r6, #3
    7b70:	4699      	mov	r9, r3
    7b72:	00c9      	lsls	r1, r1, #3
    7b74:	0f72      	lsrs	r2, r6, #29
    7b76:	4d44      	ldr	r5, [pc, #272]	; (7c88 <__aeabi_dsub+0x348>)
    7b78:	4311      	orrs	r1, r2
    7b7a:	464b      	mov	r3, r9
    7b7c:	08de      	lsrs	r6, r3, #3
    7b7e:	4b42      	ldr	r3, [pc, #264]	; (7c88 <__aeabi_dsub+0x348>)
    7b80:	074f      	lsls	r7, r1, #29
    7b82:	4337      	orrs	r7, r6
    7b84:	08ca      	lsrs	r2, r1, #3
    7b86:	429d      	cmp	r5, r3
    7b88:	d100      	bne.n	7b8c <__aeabi_dsub+0x24c>
    7b8a:	e06e      	b.n	7c6a <__aeabi_dsub+0x32a>
    7b8c:	0312      	lsls	r2, r2, #12
    7b8e:	056d      	lsls	r5, r5, #21
    7b90:	0b12      	lsrs	r2, r2, #12
    7b92:	0d6d      	lsrs	r5, r5, #21
    7b94:	2100      	movs	r1, #0
    7b96:	0312      	lsls	r2, r2, #12
    7b98:	0b13      	lsrs	r3, r2, #12
    7b9a:	0d0a      	lsrs	r2, r1, #20
    7b9c:	0512      	lsls	r2, r2, #20
    7b9e:	431a      	orrs	r2, r3
    7ba0:	4b3b      	ldr	r3, [pc, #236]	; (7c90 <__aeabi_dsub+0x350>)
    7ba2:	052d      	lsls	r5, r5, #20
    7ba4:	4013      	ands	r3, r2
    7ba6:	432b      	orrs	r3, r5
    7ba8:	005b      	lsls	r3, r3, #1
    7baa:	07e4      	lsls	r4, r4, #31
    7bac:	085b      	lsrs	r3, r3, #1
    7bae:	4323      	orrs	r3, r4
    7bb0:	0038      	movs	r0, r7
    7bb2:	0019      	movs	r1, r3
    7bb4:	bc3c      	pop	{r2, r3, r4, r5}
    7bb6:	4690      	mov	r8, r2
    7bb8:	4699      	mov	r9, r3
    7bba:	46a2      	mov	sl, r4
    7bbc:	46ab      	mov	fp, r5
    7bbe:	bdf8      	pop	{r3, r4, r5, r6, r7, pc}
    7bc0:	4663      	mov	r3, ip
    7bc2:	4313      	orrs	r3, r2
    7bc4:	d011      	beq.n	7bea <__aeabi_dsub+0x2aa>
    7bc6:	1e73      	subs	r3, r6, #1
    7bc8:	2b00      	cmp	r3, #0
    7bca:	d000      	beq.n	7bce <__aeabi_dsub+0x28e>
    7bcc:	e107      	b.n	7dde <__aeabi_dsub+0x49e>
    7bce:	1886      	adds	r6, r0, r2
    7bd0:	4286      	cmp	r6, r0
    7bd2:	4180      	sbcs	r0, r0
    7bd4:	4461      	add	r1, ip
    7bd6:	4240      	negs	r0, r0
    7bd8:	1809      	adds	r1, r1, r0
    7bda:	2501      	movs	r5, #1
    7bdc:	020b      	lsls	r3, r1, #8
    7bde:	d537      	bpl.n	7c50 <__aeabi_dsub+0x310>
    7be0:	2502      	movs	r5, #2
    7be2:	e77b      	b.n	7adc <__aeabi_dsub+0x19c>
    7be4:	003e      	movs	r6, r7
    7be6:	4661      	mov	r1, ip
    7be8:	4691      	mov	r9, r2
    7bea:	0035      	movs	r5, r6
    7bec:	e7c5      	b.n	7b7a <__aeabi_dsub+0x23a>
    7bee:	465c      	mov	r4, fp
    7bf0:	2d00      	cmp	r5, #0
    7bf2:	d000      	beq.n	7bf6 <__aeabi_dsub+0x2b6>
    7bf4:	e0e1      	b.n	7dba <__aeabi_dsub+0x47a>
    7bf6:	000b      	movs	r3, r1
    7bf8:	4303      	orrs	r3, r0
    7bfa:	d0f3      	beq.n	7be4 <__aeabi_dsub+0x2a4>
    7bfc:	1c73      	adds	r3, r6, #1
    7bfe:	d100      	bne.n	7c02 <__aeabi_dsub+0x2c2>
    7c00:	e1ac      	b.n	7f5c <__aeabi_dsub+0x61c>
    7c02:	4b21      	ldr	r3, [pc, #132]	; (7c88 <__aeabi_dsub+0x348>)
    7c04:	429f      	cmp	r7, r3
    7c06:	d100      	bne.n	7c0a <__aeabi_dsub+0x2ca>
    7c08:	e13a      	b.n	7e80 <__aeabi_dsub+0x540>
    7c0a:	43f3      	mvns	r3, r6
    7c0c:	2b38      	cmp	r3, #56	; 0x38
    7c0e:	dd00      	ble.n	7c12 <__aeabi_dsub+0x2d2>
    7c10:	e16f      	b.n	7ef2 <__aeabi_dsub+0x5b2>
    7c12:	2b1f      	cmp	r3, #31
    7c14:	dd00      	ble.n	7c18 <__aeabi_dsub+0x2d8>
    7c16:	e18c      	b.n	7f32 <__aeabi_dsub+0x5f2>
    7c18:	2520      	movs	r5, #32
    7c1a:	000e      	movs	r6, r1
    7c1c:	1aed      	subs	r5, r5, r3
    7c1e:	40ae      	lsls	r6, r5
    7c20:	46b0      	mov	r8, r6
    7c22:	0006      	movs	r6, r0
    7c24:	46aa      	mov	sl, r5
    7c26:	40de      	lsrs	r6, r3
    7c28:	4645      	mov	r5, r8
    7c2a:	4335      	orrs	r5, r6
    7c2c:	002e      	movs	r6, r5
    7c2e:	4655      	mov	r5, sl
    7c30:	40d9      	lsrs	r1, r3
    7c32:	40a8      	lsls	r0, r5
    7c34:	4663      	mov	r3, ip
    7c36:	1e45      	subs	r5, r0, #1
    7c38:	41a8      	sbcs	r0, r5
    7c3a:	1a5b      	subs	r3, r3, r1
    7c3c:	469c      	mov	ip, r3
    7c3e:	4330      	orrs	r0, r6
    7c40:	1a16      	subs	r6, r2, r0
    7c42:	42b2      	cmp	r2, r6
    7c44:	4192      	sbcs	r2, r2
    7c46:	4663      	mov	r3, ip
    7c48:	4252      	negs	r2, r2
    7c4a:	1a99      	subs	r1, r3, r2
    7c4c:	003d      	movs	r5, r7
    7c4e:	e6b4      	b.n	79ba <__aeabi_dsub+0x7a>
    7c50:	2207      	movs	r2, #7
    7c52:	4032      	ands	r2, r6
    7c54:	2a00      	cmp	r2, #0
    7c56:	d000      	beq.n	7c5a <__aeabi_dsub+0x31a>
    7c58:	e6e4      	b.n	7a24 <__aeabi_dsub+0xe4>
    7c5a:	4b0b      	ldr	r3, [pc, #44]	; (7c88 <__aeabi_dsub+0x348>)
    7c5c:	08f6      	lsrs	r6, r6, #3
    7c5e:	074f      	lsls	r7, r1, #29
    7c60:	4337      	orrs	r7, r6
    7c62:	08ca      	lsrs	r2, r1, #3
    7c64:	429d      	cmp	r5, r3
    7c66:	d000      	beq.n	7c6a <__aeabi_dsub+0x32a>
    7c68:	e790      	b.n	7b8c <__aeabi_dsub+0x24c>
    7c6a:	003b      	movs	r3, r7
    7c6c:	4313      	orrs	r3, r2
    7c6e:	d100      	bne.n	7c72 <__aeabi_dsub+0x332>
    7c70:	e1a6      	b.n	7fc0 <__aeabi_dsub+0x680>
    7c72:	2380      	movs	r3, #128	; 0x80
    7c74:	031b      	lsls	r3, r3, #12
    7c76:	431a      	orrs	r2, r3
    7c78:	0312      	lsls	r2, r2, #12
    7c7a:	0b12      	lsrs	r2, r2, #12
    7c7c:	4d02      	ldr	r5, [pc, #8]	; (7c88 <__aeabi_dsub+0x348>)
    7c7e:	e789      	b.n	7b94 <__aeabi_dsub+0x254>
    7c80:	0015      	movs	r5, r2
    7c82:	2200      	movs	r2, #0
    7c84:	2700      	movs	r7, #0
    7c86:	e785      	b.n	7b94 <__aeabi_dsub+0x254>
    7c88:	000007ff 	.word	0x000007ff
    7c8c:	ff7fffff 	.word	0xff7fffff
    7c90:	800fffff 	.word	0x800fffff
    7c94:	2e00      	cmp	r6, #0
    7c96:	d000      	beq.n	7c9a <__aeabi_dsub+0x35a>
    7c98:	e0c7      	b.n	7e2a <__aeabi_dsub+0x4ea>
    7c9a:	1c6b      	adds	r3, r5, #1
    7c9c:	055e      	lsls	r6, r3, #21
    7c9e:	0d76      	lsrs	r6, r6, #21
    7ca0:	2e01      	cmp	r6, #1
    7ca2:	dc00      	bgt.n	7ca6 <__aeabi_dsub+0x366>
    7ca4:	e0f0      	b.n	7e88 <__aeabi_dsub+0x548>
    7ca6:	4dc8      	ldr	r5, [pc, #800]	; (7fc8 <__aeabi_dsub+0x688>)
    7ca8:	42ab      	cmp	r3, r5
    7caa:	d100      	bne.n	7cae <__aeabi_dsub+0x36e>
    7cac:	e0b9      	b.n	7e22 <__aeabi_dsub+0x4e2>
    7cae:	1885      	adds	r5, r0, r2
    7cb0:	000a      	movs	r2, r1
    7cb2:	4285      	cmp	r5, r0
    7cb4:	4189      	sbcs	r1, r1
    7cb6:	4462      	add	r2, ip
    7cb8:	4249      	negs	r1, r1
    7cba:	1851      	adds	r1, r2, r1
    7cbc:	2207      	movs	r2, #7
    7cbe:	07ce      	lsls	r6, r1, #31
    7cc0:	086d      	lsrs	r5, r5, #1
    7cc2:	432e      	orrs	r6, r5
    7cc4:	0849      	lsrs	r1, r1, #1
    7cc6:	4032      	ands	r2, r6
    7cc8:	001d      	movs	r5, r3
    7cca:	e6a9      	b.n	7a20 <__aeabi_dsub+0xe0>
    7ccc:	49bf      	ldr	r1, [pc, #764]	; (7fcc <__aeabi_dsub+0x68c>)
    7cce:	1aed      	subs	r5, r5, r3
    7cd0:	4011      	ands	r1, r2
    7cd2:	2207      	movs	r2, #7
    7cd4:	4032      	ands	r2, r6
    7cd6:	e6a3      	b.n	7a20 <__aeabi_dsub+0xe0>
    7cd8:	0032      	movs	r2, r6
    7cda:	3828      	subs	r0, #40	; 0x28
    7cdc:	4082      	lsls	r2, r0
    7cde:	2600      	movs	r6, #0
    7ce0:	e686      	b.n	79f0 <__aeabi_dsub+0xb0>
    7ce2:	0030      	movs	r0, r6
    7ce4:	f000 f9dc 	bl	80a0 <__clzsi2>
    7ce8:	3020      	adds	r0, #32
    7cea:	e673      	b.n	79d4 <__aeabi_dsub+0x94>
    7cec:	4663      	mov	r3, ip
    7cee:	4313      	orrs	r3, r2
    7cf0:	1e5a      	subs	r2, r3, #1
    7cf2:	4193      	sbcs	r3, r2
    7cf4:	1ac6      	subs	r6, r0, r3
    7cf6:	42b0      	cmp	r0, r6
    7cf8:	4180      	sbcs	r0, r0
    7cfa:	4240      	negs	r0, r0
    7cfc:	1a09      	subs	r1, r1, r0
    7cfe:	e65c      	b.n	79ba <__aeabi_dsub+0x7a>
    7d00:	000e      	movs	r6, r1
    7d02:	4667      	mov	r7, ip
    7d04:	4306      	orrs	r6, r0
    7d06:	4317      	orrs	r7, r2
    7d08:	2d00      	cmp	r5, #0
    7d0a:	d15e      	bne.n	7dca <__aeabi_dsub+0x48a>
    7d0c:	2e00      	cmp	r6, #0
    7d0e:	d000      	beq.n	7d12 <__aeabi_dsub+0x3d2>
    7d10:	e0f3      	b.n	7efa <__aeabi_dsub+0x5ba>
    7d12:	2f00      	cmp	r7, #0
    7d14:	d100      	bne.n	7d18 <__aeabi_dsub+0x3d8>
    7d16:	e11e      	b.n	7f56 <__aeabi_dsub+0x616>
    7d18:	465c      	mov	r4, fp
    7d1a:	4661      	mov	r1, ip
    7d1c:	4691      	mov	r9, r2
    7d1e:	e72c      	b.n	7b7a <__aeabi_dsub+0x23a>
    7d20:	4fa9      	ldr	r7, [pc, #676]	; (7fc8 <__aeabi_dsub+0x688>)
    7d22:	42be      	cmp	r6, r7
    7d24:	d07b      	beq.n	7e1e <__aeabi_dsub+0x4de>
    7d26:	001e      	movs	r6, r3
    7d28:	e6f1      	b.n	7b0e <__aeabi_dsub+0x1ce>
    7d2a:	0010      	movs	r0, r2
    7d2c:	3d1f      	subs	r5, #31
    7d2e:	40e8      	lsrs	r0, r5
    7d30:	2b20      	cmp	r3, #32
    7d32:	d003      	beq.n	7d3c <__aeabi_dsub+0x3fc>
    7d34:	2140      	movs	r1, #64	; 0x40
    7d36:	1acb      	subs	r3, r1, r3
    7d38:	409a      	lsls	r2, r3
    7d3a:	4316      	orrs	r6, r2
    7d3c:	1e73      	subs	r3, r6, #1
    7d3e:	419e      	sbcs	r6, r3
    7d40:	2207      	movs	r2, #7
    7d42:	4306      	orrs	r6, r0
    7d44:	4032      	ands	r2, r6
    7d46:	2100      	movs	r1, #0
    7d48:	2500      	movs	r5, #0
    7d4a:	e783      	b.n	7c54 <__aeabi_dsub+0x314>
    7d4c:	1a16      	subs	r6, r2, r0
    7d4e:	4663      	mov	r3, ip
    7d50:	42b2      	cmp	r2, r6
    7d52:	4180      	sbcs	r0, r0
    7d54:	1a59      	subs	r1, r3, r1
    7d56:	4240      	negs	r0, r0
    7d58:	1a0b      	subs	r3, r1, r0
    7d5a:	4698      	mov	r8, r3
    7d5c:	465c      	mov	r4, fp
    7d5e:	e632      	b.n	79c6 <__aeabi_dsub+0x86>
    7d60:	2e1f      	cmp	r6, #31
    7d62:	dd00      	ble.n	7d66 <__aeabi_dsub+0x426>
    7d64:	e0ab      	b.n	7ebe <__aeabi_dsub+0x57e>
    7d66:	2720      	movs	r7, #32
    7d68:	1bbb      	subs	r3, r7, r6
    7d6a:	469a      	mov	sl, r3
    7d6c:	4663      	mov	r3, ip
    7d6e:	4657      	mov	r7, sl
    7d70:	40bb      	lsls	r3, r7
    7d72:	4699      	mov	r9, r3
    7d74:	0013      	movs	r3, r2
    7d76:	464f      	mov	r7, r9
    7d78:	40f3      	lsrs	r3, r6
    7d7a:	431f      	orrs	r7, r3
    7d7c:	003b      	movs	r3, r7
    7d7e:	4657      	mov	r7, sl
    7d80:	40ba      	lsls	r2, r7
    7d82:	1e57      	subs	r7, r2, #1
    7d84:	41ba      	sbcs	r2, r7
    7d86:	4313      	orrs	r3, r2
    7d88:	4662      	mov	r2, ip
    7d8a:	40f2      	lsrs	r2, r6
    7d8c:	1889      	adds	r1, r1, r2
    7d8e:	e698      	b.n	7ac2 <__aeabi_dsub+0x182>
    7d90:	2720      	movs	r7, #32
    7d92:	1bbb      	subs	r3, r7, r6
    7d94:	469a      	mov	sl, r3
    7d96:	4663      	mov	r3, ip
    7d98:	4657      	mov	r7, sl
    7d9a:	40bb      	lsls	r3, r7
    7d9c:	4699      	mov	r9, r3
    7d9e:	0013      	movs	r3, r2
    7da0:	464f      	mov	r7, r9
    7da2:	40f3      	lsrs	r3, r6
    7da4:	431f      	orrs	r7, r3
    7da6:	003b      	movs	r3, r7
    7da8:	4657      	mov	r7, sl
    7daa:	40ba      	lsls	r2, r7
    7dac:	1e57      	subs	r7, r2, #1
    7dae:	41ba      	sbcs	r2, r7
    7db0:	4313      	orrs	r3, r2
    7db2:	4662      	mov	r2, ip
    7db4:	40f2      	lsrs	r2, r6
    7db6:	1a89      	subs	r1, r1, r2
    7db8:	e79c      	b.n	7cf4 <__aeabi_dsub+0x3b4>
    7dba:	4b83      	ldr	r3, [pc, #524]	; (7fc8 <__aeabi_dsub+0x688>)
    7dbc:	429f      	cmp	r7, r3
    7dbe:	d05f      	beq.n	7e80 <__aeabi_dsub+0x540>
    7dc0:	2580      	movs	r5, #128	; 0x80
    7dc2:	042d      	lsls	r5, r5, #16
    7dc4:	4273      	negs	r3, r6
    7dc6:	4329      	orrs	r1, r5
    7dc8:	e720      	b.n	7c0c <__aeabi_dsub+0x2cc>
    7dca:	2e00      	cmp	r6, #0
    7dcc:	d10c      	bne.n	7de8 <__aeabi_dsub+0x4a8>
    7dce:	2f00      	cmp	r7, #0
    7dd0:	d100      	bne.n	7dd4 <__aeabi_dsub+0x494>
    7dd2:	e0d0      	b.n	7f76 <__aeabi_dsub+0x636>
    7dd4:	465c      	mov	r4, fp
    7dd6:	4661      	mov	r1, ip
    7dd8:	4691      	mov	r9, r2
    7dda:	4d7b      	ldr	r5, [pc, #492]	; (7fc8 <__aeabi_dsub+0x688>)
    7ddc:	e6cd      	b.n	7b7a <__aeabi_dsub+0x23a>
    7dde:	4f7a      	ldr	r7, [pc, #488]	; (7fc8 <__aeabi_dsub+0x688>)
    7de0:	42be      	cmp	r6, r7
    7de2:	d01c      	beq.n	7e1e <__aeabi_dsub+0x4de>
    7de4:	001e      	movs	r6, r3
    7de6:	e665      	b.n	7ab4 <__aeabi_dsub+0x174>
    7de8:	2f00      	cmp	r7, #0
    7dea:	d018      	beq.n	7e1e <__aeabi_dsub+0x4de>
    7dec:	08c0      	lsrs	r0, r0, #3
    7dee:	074e      	lsls	r6, r1, #29
    7df0:	4306      	orrs	r6, r0
    7df2:	2080      	movs	r0, #128	; 0x80
    7df4:	08c9      	lsrs	r1, r1, #3
    7df6:	0300      	lsls	r0, r0, #12
    7df8:	4201      	tst	r1, r0
    7dfa:	d008      	beq.n	7e0e <__aeabi_dsub+0x4ce>
    7dfc:	4663      	mov	r3, ip
    7dfe:	08dc      	lsrs	r4, r3, #3
    7e00:	4204      	tst	r4, r0
    7e02:	d104      	bne.n	7e0e <__aeabi_dsub+0x4ce>
    7e04:	0021      	movs	r1, r4
    7e06:	46da      	mov	sl, fp
    7e08:	08d2      	lsrs	r2, r2, #3
    7e0a:	075e      	lsls	r6, r3, #29
    7e0c:	4316      	orrs	r6, r2
    7e0e:	00f3      	lsls	r3, r6, #3
    7e10:	4699      	mov	r9, r3
    7e12:	2401      	movs	r4, #1
    7e14:	4653      	mov	r3, sl
    7e16:	00c9      	lsls	r1, r1, #3
    7e18:	0f72      	lsrs	r2, r6, #29
    7e1a:	4311      	orrs	r1, r2
    7e1c:	401c      	ands	r4, r3
    7e1e:	4d6a      	ldr	r5, [pc, #424]	; (7fc8 <__aeabi_dsub+0x688>)
    7e20:	e6ab      	b.n	7b7a <__aeabi_dsub+0x23a>
    7e22:	001d      	movs	r5, r3
    7e24:	2200      	movs	r2, #0
    7e26:	2700      	movs	r7, #0
    7e28:	e6b4      	b.n	7b94 <__aeabi_dsub+0x254>
    7e2a:	2d00      	cmp	r5, #0
    7e2c:	d159      	bne.n	7ee2 <__aeabi_dsub+0x5a2>
    7e2e:	000b      	movs	r3, r1
    7e30:	4303      	orrs	r3, r0
    7e32:	d100      	bne.n	7e36 <__aeabi_dsub+0x4f6>
    7e34:	e6d6      	b.n	7be4 <__aeabi_dsub+0x2a4>
    7e36:	1c73      	adds	r3, r6, #1
    7e38:	d100      	bne.n	7e3c <__aeabi_dsub+0x4fc>
    7e3a:	e0b2      	b.n	7fa2 <__aeabi_dsub+0x662>
    7e3c:	4b62      	ldr	r3, [pc, #392]	; (7fc8 <__aeabi_dsub+0x688>)
    7e3e:	429f      	cmp	r7, r3
    7e40:	d01e      	beq.n	7e80 <__aeabi_dsub+0x540>
    7e42:	43f3      	mvns	r3, r6
    7e44:	2b38      	cmp	r3, #56	; 0x38
    7e46:	dc6f      	bgt.n	7f28 <__aeabi_dsub+0x5e8>
    7e48:	2b1f      	cmp	r3, #31
    7e4a:	dd00      	ble.n	7e4e <__aeabi_dsub+0x50e>
    7e4c:	e097      	b.n	7f7e <__aeabi_dsub+0x63e>
    7e4e:	2520      	movs	r5, #32
    7e50:	000e      	movs	r6, r1
    7e52:	1aed      	subs	r5, r5, r3
    7e54:	40ae      	lsls	r6, r5
    7e56:	46b0      	mov	r8, r6
    7e58:	0006      	movs	r6, r0
    7e5a:	46aa      	mov	sl, r5
    7e5c:	40de      	lsrs	r6, r3
    7e5e:	4645      	mov	r5, r8
    7e60:	4335      	orrs	r5, r6
    7e62:	002e      	movs	r6, r5
    7e64:	4655      	mov	r5, sl
    7e66:	40a8      	lsls	r0, r5
    7e68:	40d9      	lsrs	r1, r3
    7e6a:	1e45      	subs	r5, r0, #1
    7e6c:	41a8      	sbcs	r0, r5
    7e6e:	448c      	add	ip, r1
    7e70:	4306      	orrs	r6, r0
    7e72:	18b6      	adds	r6, r6, r2
    7e74:	4296      	cmp	r6, r2
    7e76:	4192      	sbcs	r2, r2
    7e78:	4251      	negs	r1, r2
    7e7a:	4461      	add	r1, ip
    7e7c:	003d      	movs	r5, r7
    7e7e:	e625      	b.n	7acc <__aeabi_dsub+0x18c>
    7e80:	003d      	movs	r5, r7
    7e82:	4661      	mov	r1, ip
    7e84:	4691      	mov	r9, r2
    7e86:	e678      	b.n	7b7a <__aeabi_dsub+0x23a>
    7e88:	000b      	movs	r3, r1
    7e8a:	4303      	orrs	r3, r0
    7e8c:	2d00      	cmp	r5, #0
    7e8e:	d000      	beq.n	7e92 <__aeabi_dsub+0x552>
    7e90:	e655      	b.n	7b3e <__aeabi_dsub+0x1fe>
    7e92:	2b00      	cmp	r3, #0
    7e94:	d0f5      	beq.n	7e82 <__aeabi_dsub+0x542>
    7e96:	4663      	mov	r3, ip
    7e98:	4313      	orrs	r3, r2
    7e9a:	d100      	bne.n	7e9e <__aeabi_dsub+0x55e>
    7e9c:	e66d      	b.n	7b7a <__aeabi_dsub+0x23a>
    7e9e:	1886      	adds	r6, r0, r2
    7ea0:	4286      	cmp	r6, r0
    7ea2:	4180      	sbcs	r0, r0
    7ea4:	4461      	add	r1, ip
    7ea6:	4240      	negs	r0, r0
    7ea8:	1809      	adds	r1, r1, r0
    7eaa:	2200      	movs	r2, #0
    7eac:	020b      	lsls	r3, r1, #8
    7eae:	d400      	bmi.n	7eb2 <__aeabi_dsub+0x572>
    7eb0:	e6d0      	b.n	7c54 <__aeabi_dsub+0x314>
    7eb2:	4b46      	ldr	r3, [pc, #280]	; (7fcc <__aeabi_dsub+0x68c>)
    7eb4:	3501      	adds	r5, #1
    7eb6:	4019      	ands	r1, r3
    7eb8:	e5b2      	b.n	7a20 <__aeabi_dsub+0xe0>
    7eba:	46b1      	mov	r9, r6
    7ebc:	e65d      	b.n	7b7a <__aeabi_dsub+0x23a>
    7ebe:	0033      	movs	r3, r6
    7ec0:	4667      	mov	r7, ip
    7ec2:	3b20      	subs	r3, #32
    7ec4:	40df      	lsrs	r7, r3
    7ec6:	003b      	movs	r3, r7
    7ec8:	2e20      	cmp	r6, #32
    7eca:	d005      	beq.n	7ed8 <__aeabi_dsub+0x598>
    7ecc:	2740      	movs	r7, #64	; 0x40
    7ece:	1bbf      	subs	r7, r7, r6
    7ed0:	4666      	mov	r6, ip
    7ed2:	40be      	lsls	r6, r7
    7ed4:	4332      	orrs	r2, r6
    7ed6:	4690      	mov	r8, r2
    7ed8:	4646      	mov	r6, r8
    7eda:	1e72      	subs	r2, r6, #1
    7edc:	4196      	sbcs	r6, r2
    7ede:	4333      	orrs	r3, r6
    7ee0:	e5ef      	b.n	7ac2 <__aeabi_dsub+0x182>
    7ee2:	4b39      	ldr	r3, [pc, #228]	; (7fc8 <__aeabi_dsub+0x688>)
    7ee4:	429f      	cmp	r7, r3
    7ee6:	d0cb      	beq.n	7e80 <__aeabi_dsub+0x540>
    7ee8:	2580      	movs	r5, #128	; 0x80
    7eea:	042d      	lsls	r5, r5, #16
    7eec:	4273      	negs	r3, r6
    7eee:	4329      	orrs	r1, r5
    7ef0:	e7a8      	b.n	7e44 <__aeabi_dsub+0x504>
    7ef2:	4308      	orrs	r0, r1
    7ef4:	1e41      	subs	r1, r0, #1
    7ef6:	4188      	sbcs	r0, r1
    7ef8:	e6a2      	b.n	7c40 <__aeabi_dsub+0x300>
    7efa:	2f00      	cmp	r7, #0
    7efc:	d100      	bne.n	7f00 <__aeabi_dsub+0x5c0>
    7efe:	e63c      	b.n	7b7a <__aeabi_dsub+0x23a>
    7f00:	4663      	mov	r3, ip
    7f02:	1a86      	subs	r6, r0, r2
    7f04:	1acf      	subs	r7, r1, r3
    7f06:	42b0      	cmp	r0, r6
    7f08:	419b      	sbcs	r3, r3
    7f0a:	425b      	negs	r3, r3
    7f0c:	1afb      	subs	r3, r7, r3
    7f0e:	4698      	mov	r8, r3
    7f10:	021b      	lsls	r3, r3, #8
    7f12:	d54e      	bpl.n	7fb2 <__aeabi_dsub+0x672>
    7f14:	1a16      	subs	r6, r2, r0
    7f16:	4663      	mov	r3, ip
    7f18:	42b2      	cmp	r2, r6
    7f1a:	4192      	sbcs	r2, r2
    7f1c:	1a59      	subs	r1, r3, r1
    7f1e:	4252      	negs	r2, r2
    7f20:	1a89      	subs	r1, r1, r2
    7f22:	465c      	mov	r4, fp
    7f24:	2200      	movs	r2, #0
    7f26:	e57b      	b.n	7a20 <__aeabi_dsub+0xe0>
    7f28:	4301      	orrs	r1, r0
    7f2a:	000e      	movs	r6, r1
    7f2c:	1e71      	subs	r1, r6, #1
    7f2e:	418e      	sbcs	r6, r1
    7f30:	e79f      	b.n	7e72 <__aeabi_dsub+0x532>
    7f32:	001d      	movs	r5, r3
    7f34:	000e      	movs	r6, r1
    7f36:	3d20      	subs	r5, #32
    7f38:	40ee      	lsrs	r6, r5
    7f3a:	46b0      	mov	r8, r6
    7f3c:	2b20      	cmp	r3, #32
    7f3e:	d004      	beq.n	7f4a <__aeabi_dsub+0x60a>
    7f40:	2540      	movs	r5, #64	; 0x40
    7f42:	1aeb      	subs	r3, r5, r3
    7f44:	4099      	lsls	r1, r3
    7f46:	4308      	orrs	r0, r1
    7f48:	4681      	mov	r9, r0
    7f4a:	4648      	mov	r0, r9
    7f4c:	4643      	mov	r3, r8
    7f4e:	1e41      	subs	r1, r0, #1
    7f50:	4188      	sbcs	r0, r1
    7f52:	4318      	orrs	r0, r3
    7f54:	e674      	b.n	7c40 <__aeabi_dsub+0x300>
    7f56:	2200      	movs	r2, #0
    7f58:	2400      	movs	r4, #0
    7f5a:	e617      	b.n	7b8c <__aeabi_dsub+0x24c>
    7f5c:	1a16      	subs	r6, r2, r0
    7f5e:	4663      	mov	r3, ip
    7f60:	42b2      	cmp	r2, r6
    7f62:	4192      	sbcs	r2, r2
    7f64:	1a59      	subs	r1, r3, r1
    7f66:	4252      	negs	r2, r2
    7f68:	1a89      	subs	r1, r1, r2
    7f6a:	003d      	movs	r5, r7
    7f6c:	e525      	b.n	79ba <__aeabi_dsub+0x7a>
    7f6e:	4661      	mov	r1, ip
    7f70:	4691      	mov	r9, r2
    7f72:	4d15      	ldr	r5, [pc, #84]	; (7fc8 <__aeabi_dsub+0x688>)
    7f74:	e601      	b.n	7b7a <__aeabi_dsub+0x23a>
    7f76:	2280      	movs	r2, #128	; 0x80
    7f78:	2400      	movs	r4, #0
    7f7a:	0312      	lsls	r2, r2, #12
    7f7c:	e679      	b.n	7c72 <__aeabi_dsub+0x332>
    7f7e:	001d      	movs	r5, r3
    7f80:	000e      	movs	r6, r1
    7f82:	3d20      	subs	r5, #32
    7f84:	40ee      	lsrs	r6, r5
    7f86:	46b0      	mov	r8, r6
    7f88:	2b20      	cmp	r3, #32
    7f8a:	d004      	beq.n	7f96 <__aeabi_dsub+0x656>
    7f8c:	2540      	movs	r5, #64	; 0x40
    7f8e:	1aeb      	subs	r3, r5, r3
    7f90:	4099      	lsls	r1, r3
    7f92:	4308      	orrs	r0, r1
    7f94:	4681      	mov	r9, r0
    7f96:	464e      	mov	r6, r9
    7f98:	4643      	mov	r3, r8
    7f9a:	1e71      	subs	r1, r6, #1
    7f9c:	418e      	sbcs	r6, r1
    7f9e:	431e      	orrs	r6, r3
    7fa0:	e767      	b.n	7e72 <__aeabi_dsub+0x532>
    7fa2:	1886      	adds	r6, r0, r2
    7fa4:	4296      	cmp	r6, r2
    7fa6:	419b      	sbcs	r3, r3
    7fa8:	4461      	add	r1, ip
    7faa:	425b      	negs	r3, r3
    7fac:	18c9      	adds	r1, r1, r3
    7fae:	003d      	movs	r5, r7
    7fb0:	e58c      	b.n	7acc <__aeabi_dsub+0x18c>
    7fb2:	4647      	mov	r7, r8
    7fb4:	4337      	orrs	r7, r6
    7fb6:	d0ce      	beq.n	7f56 <__aeabi_dsub+0x616>
    7fb8:	2207      	movs	r2, #7
    7fba:	4641      	mov	r1, r8
    7fbc:	4032      	ands	r2, r6
    7fbe:	e649      	b.n	7c54 <__aeabi_dsub+0x314>
    7fc0:	2700      	movs	r7, #0
    7fc2:	003a      	movs	r2, r7
    7fc4:	e5e6      	b.n	7b94 <__aeabi_dsub+0x254>
    7fc6:	46c0      	nop			; (mov r8, r8)
    7fc8:	000007ff 	.word	0x000007ff
    7fcc:	ff7fffff 	.word	0xff7fffff

00007fd0 <__aeabi_d2iz>:
__aeabi_d2iz():
    7fd0:	b530      	push	{r4, r5, lr}
    7fd2:	4d14      	ldr	r5, [pc, #80]	; (8024 <__aeabi_d2iz+0x54>)
    7fd4:	030a      	lsls	r2, r1, #12
    7fd6:	004b      	lsls	r3, r1, #1
    7fd8:	0b12      	lsrs	r2, r2, #12
    7fda:	0d5b      	lsrs	r3, r3, #21
    7fdc:	0fc9      	lsrs	r1, r1, #31
    7fde:	2400      	movs	r4, #0
    7fe0:	42ab      	cmp	r3, r5
    7fe2:	dd11      	ble.n	8008 <__aeabi_d2iz+0x38>
    7fe4:	4c10      	ldr	r4, [pc, #64]	; (8028 <__aeabi_d2iz+0x58>)
    7fe6:	42a3      	cmp	r3, r4
    7fe8:	dc10      	bgt.n	800c <__aeabi_d2iz+0x3c>
    7fea:	2480      	movs	r4, #128	; 0x80
    7fec:	0364      	lsls	r4, r4, #13
    7fee:	4322      	orrs	r2, r4
    7ff0:	4c0e      	ldr	r4, [pc, #56]	; (802c <__aeabi_d2iz+0x5c>)
    7ff2:	1ae4      	subs	r4, r4, r3
    7ff4:	2c1f      	cmp	r4, #31
    7ff6:	dd0c      	ble.n	8012 <__aeabi_d2iz+0x42>
    7ff8:	480d      	ldr	r0, [pc, #52]	; (8030 <__aeabi_d2iz+0x60>)
    7ffa:	1ac3      	subs	r3, r0, r3
    7ffc:	40da      	lsrs	r2, r3
    7ffe:	0013      	movs	r3, r2
    8000:	425c      	negs	r4, r3
    8002:	2900      	cmp	r1, #0
    8004:	d100      	bne.n	8008 <__aeabi_d2iz+0x38>
    8006:	001c      	movs	r4, r3
    8008:	0020      	movs	r0, r4
    800a:	bd30      	pop	{r4, r5, pc}
    800c:	4b09      	ldr	r3, [pc, #36]	; (8034 <__aeabi_d2iz+0x64>)
    800e:	18cc      	adds	r4, r1, r3
    8010:	e7fa      	b.n	8008 <__aeabi_d2iz+0x38>
    8012:	4d09      	ldr	r5, [pc, #36]	; (8038 <__aeabi_d2iz+0x68>)
    8014:	40e0      	lsrs	r0, r4
    8016:	46ac      	mov	ip, r5
    8018:	4463      	add	r3, ip
    801a:	409a      	lsls	r2, r3
    801c:	0013      	movs	r3, r2
    801e:	4303      	orrs	r3, r0
    8020:	e7ee      	b.n	8000 <__aeabi_d2iz+0x30>
    8022:	46c0      	nop			; (mov r8, r8)
    8024:	000003fe 	.word	0x000003fe
    8028:	0000041d 	.word	0x0000041d
    802c:	00000433 	.word	0x00000433
    8030:	00000413 	.word	0x00000413
    8034:	7fffffff 	.word	0x7fffffff
    8038:	fffffbed 	.word	0xfffffbed

0000803c <__aeabi_ui2d>:
__aeabi_ui2d():
    803c:	b510      	push	{r4, lr}
    803e:	1e04      	subs	r4, r0, #0
    8040:	d025      	beq.n	808e <__aeabi_ui2d+0x52>
    8042:	f000 f82d 	bl	80a0 <__clzsi2>
    8046:	4b14      	ldr	r3, [pc, #80]	; (8098 <__aeabi_ui2d+0x5c>)
    8048:	1a1b      	subs	r3, r3, r0
    804a:	055b      	lsls	r3, r3, #21
    804c:	0d5b      	lsrs	r3, r3, #21
    804e:	280a      	cmp	r0, #10
    8050:	dd12      	ble.n	8078 <__aeabi_ui2d+0x3c>
    8052:	380b      	subs	r0, #11
    8054:	4084      	lsls	r4, r0
    8056:	2200      	movs	r2, #0
    8058:	0324      	lsls	r4, r4, #12
    805a:	0b24      	lsrs	r4, r4, #12
    805c:	2100      	movs	r1, #0
    805e:	0010      	movs	r0, r2
    8060:	0324      	lsls	r4, r4, #12
    8062:	0d0a      	lsrs	r2, r1, #20
    8064:	0b24      	lsrs	r4, r4, #12
    8066:	0512      	lsls	r2, r2, #20
    8068:	4322      	orrs	r2, r4
    806a:	4c0c      	ldr	r4, [pc, #48]	; (809c <__aeabi_ui2d+0x60>)
    806c:	051b      	lsls	r3, r3, #20
    806e:	4022      	ands	r2, r4
    8070:	4313      	orrs	r3, r2
    8072:	005b      	lsls	r3, r3, #1
    8074:	0859      	lsrs	r1, r3, #1
    8076:	bd10      	pop	{r4, pc}
    8078:	0002      	movs	r2, r0
    807a:	0021      	movs	r1, r4
    807c:	3215      	adds	r2, #21
    807e:	4091      	lsls	r1, r2
    8080:	000a      	movs	r2, r1
    8082:	210b      	movs	r1, #11
    8084:	1a08      	subs	r0, r1, r0
    8086:	40c4      	lsrs	r4, r0
    8088:	0324      	lsls	r4, r4, #12
    808a:	0b24      	lsrs	r4, r4, #12
    808c:	e7e6      	b.n	805c <__aeabi_ui2d+0x20>
    808e:	2300      	movs	r3, #0
    8090:	2400      	movs	r4, #0
    8092:	2200      	movs	r2, #0
    8094:	e7e2      	b.n	805c <__aeabi_ui2d+0x20>
    8096:	46c0      	nop			; (mov r8, r8)
    8098:	0000041e 	.word	0x0000041e
    809c:	800fffff 	.word	0x800fffff

000080a0 <__clzsi2>:
__clzsi2():
    80a0:	211c      	movs	r1, #28
    80a2:	2301      	movs	r3, #1
    80a4:	041b      	lsls	r3, r3, #16
    80a6:	4298      	cmp	r0, r3
    80a8:	d301      	bcc.n	80ae <__clzsi2+0xe>
    80aa:	0c00      	lsrs	r0, r0, #16
    80ac:	3910      	subs	r1, #16
    80ae:	0a1b      	lsrs	r3, r3, #8
    80b0:	4298      	cmp	r0, r3
    80b2:	d301      	bcc.n	80b8 <__clzsi2+0x18>
    80b4:	0a00      	lsrs	r0, r0, #8
    80b6:	3908      	subs	r1, #8
    80b8:	091b      	lsrs	r3, r3, #4
    80ba:	4298      	cmp	r0, r3
    80bc:	d301      	bcc.n	80c2 <__clzsi2+0x22>
    80be:	0900      	lsrs	r0, r0, #4
    80c0:	3904      	subs	r1, #4
    80c2:	a202      	add	r2, pc, #8	; (adr r2, 80cc <__clzsi2+0x2c>)
    80c4:	5c10      	ldrb	r0, [r2, r0]
    80c6:	1840      	adds	r0, r0, r1
    80c8:	4770      	bx	lr
    80ca:	46c0      	nop			; (mov r8, r8)
    80cc:	02020304 	.word	0x02020304
    80d0:	01010101 	.word	0x01010101
	...

000080dc <__clzdi2>:
__clzdi2():
    80dc:	b510      	push	{r4, lr}
    80de:	2900      	cmp	r1, #0
    80e0:	d103      	bne.n	80ea <__clzdi2+0xe>
    80e2:	f7ff ffdd 	bl	80a0 <__clzsi2>
    80e6:	3020      	adds	r0, #32
    80e8:	e002      	b.n	80f0 <__clzdi2+0x14>
    80ea:	1c08      	adds	r0, r1, #0
    80ec:	f7ff ffd8 	bl	80a0 <__clzsi2>
    80f0:	bd10      	pop	{r4, pc}
    80f2:	46c0      	nop			; (mov r8, r8)

000080f4 <strcmp>:
strcmp():
    80f4:	7802      	ldrb	r2, [r0, #0]
    80f6:	780b      	ldrb	r3, [r1, #0]
    80f8:	2a00      	cmp	r2, #0
    80fa:	d003      	beq.n	8104 <strcmp+0x10>
    80fc:	3001      	adds	r0, #1
    80fe:	3101      	adds	r1, #1
    8100:	429a      	cmp	r2, r3
    8102:	d0f7      	beq.n	80f4 <strcmp>
    8104:	1ad0      	subs	r0, r2, r3
    8106:	4770      	bx	lr

00008108 <strlen>:
strlen():
    8108:	2300      	movs	r3, #0
    810a:	5cc2      	ldrb	r2, [r0, r3]
    810c:	3301      	adds	r3, #1
    810e:	2a00      	cmp	r2, #0
    8110:	d1fb      	bne.n	810a <strlen+0x2>
    8112:	1e58      	subs	r0, r3, #1
    8114:	4770      	bx	lr
	...

00008118 <crc16>:
crc16():
D:\Users\lihaifeng\Desktop\嵌入式\实验考核题目\1\Flash_KL36_20201030\Debug/srcc/emuart.c:210
//参数说明：ptr:需要校验的数据缓存区
//      len:需要检验的数据长度
//函数返回：计算得到的校验值
//=====================================================================
uint16_t crc16(uint8_t *ptr,uint16_t len)
{
    8118:	b570      	push	{r4, r5, r6, lr}
    811a:	0006      	movs	r6, r0
D:\Users\lihaifeng\Desktop\嵌入式\实验考核题目\1\Flash_KL36_20201030\Debug/srcc/emuart.c:213
	uint16_t i,j,tmp,crc16;

	crc16 = 0xffff;
    811c:	4b0c      	ldr	r3, [pc, #48]	; (8150 <crc16+0x38>)
D:\Users\lihaifeng\Desktop\嵌入式\实验考核题目\1\Flash_KL36_20201030\Debug/srcc/emuart.c:214
	for(i = 0;i < len;i++)
    811e:	2500      	movs	r5, #0
    8120:	e00e      	b.n	8140 <crc16+0x28>
D:\Users\lihaifeng\Desktop\嵌入式\实验考核题目\1\Flash_KL36_20201030\Debug/srcc/emuart.c:217 (discriminator 2)
	{
		crc16 = ptr[i]^crc16;
		for(j = 0;j< 8;j++)
    8122:	3201      	adds	r2, #1
    8124:	b292      	uxth	r2, r2
D:\Users\lihaifeng\Desktop\嵌入式\实验考核题目\1\Flash_KL36_20201030\Debug/srcc/emuart.c:217 (discriminator 1)
    8126:	2a07      	cmp	r2, #7
    8128:	d808      	bhi.n	813c <crc16+0x24>
D:\Users\lihaifeng\Desktop\嵌入式\实验考核题目\1\Flash_KL36_20201030\Debug/srcc/emuart.c:219
		{
			tmp = crc16 & 0x0001;
    812a:	2401      	movs	r4, #1
    812c:	401c      	ands	r4, r3
D:\Users\lihaifeng\Desktop\嵌入式\实验考核题目\1\Flash_KL36_20201030\Debug/srcc/emuart.c:220
			crc16 = crc16>>1;
    812e:	085b      	lsrs	r3, r3, #1
D:\Users\lihaifeng\Desktop\嵌入式\实验考核题目\1\Flash_KL36_20201030\Debug/srcc/emuart.c:221
			if(tmp)
    8130:	2c00      	cmp	r4, #0
    8132:	d0f6      	beq.n	8122 <crc16+0xa>
D:\Users\lihaifeng\Desktop\嵌入式\实验考核题目\1\Flash_KL36_20201030\Debug/srcc/emuart.c:222
				crc16 = crc16^0xa001;
    8134:	4807      	ldr	r0, [pc, #28]	; (8154 <crc16+0x3c>)
    8136:	4043      	eors	r3, r0
    8138:	b29b      	uxth	r3, r3
    813a:	e7f2      	b.n	8122 <crc16+0xa>
D:\Users\lihaifeng\Desktop\嵌入式\实验考核题目\1\Flash_KL36_20201030\Debug/srcc/emuart.c:214 (discriminator 2)
	for(i = 0;i < len;i++)
    813c:	3501      	adds	r5, #1
    813e:	b2ad      	uxth	r5, r5
D:\Users\lihaifeng\Desktop\嵌入式\实验考核题目\1\Flash_KL36_20201030\Debug/srcc/emuart.c:214 (discriminator 1)
    8140:	428d      	cmp	r5, r1
    8142:	d203      	bcs.n	814c <crc16+0x34>
D:\Users\lihaifeng\Desktop\嵌入式\实验考核题目\1\Flash_KL36_20201030\Debug/srcc/emuart.c:216
		crc16 = ptr[i]^crc16;
    8144:	5d72      	ldrb	r2, [r6, r5]
    8146:	4053      	eors	r3, r2
D:\Users\lihaifeng\Desktop\嵌入式\实验考核题目\1\Flash_KL36_20201030\Debug/srcc/emuart.c:217
		for(j = 0;j< 8;j++)
    8148:	2200      	movs	r2, #0
    814a:	e7ec      	b.n	8126 <crc16+0xe>
D:\Users\lihaifeng\Desktop\嵌入式\实验考核题目\1\Flash_KL36_20201030\Debug/srcc/emuart.c:226
		}
	}
	return crc16;
}
    814c:	0018      	movs	r0, r3
    814e:	bd70      	pop	{r4, r5, r6, pc}
    8150:	0000ffff 	.word	0x0000ffff
    8154:	ffffa001 	.word	0xffffa001

00008158 <sendFrame>:
sendFrame():
D:\Users\lihaifeng\Desktop\嵌入式\实验考核题目\1\Flash_KL36_20201030\Debug/srcc/emuart.c:180
{
    8158:	b5f8      	push	{r3, r4, r5, r6, r7, lr}
    815a:	0006      	movs	r6, r0
    815c:	000f      	movs	r7, r1
D:\Users\lihaifeng\Desktop\嵌入式\实验考核题目\1\Flash_KL36_20201030\Debug/srcc/emuart.c:183
	crc = crc16(data,length);
    815e:	0001      	movs	r1, r0
    8160:	0038      	movs	r0, r7
    8162:	f7ff ffd9 	bl	8118 <crc16>
    8166:	0005      	movs	r5, r0
D:\Users\lihaifeng\Desktop\嵌入式\实验考核题目\1\Flash_KL36_20201030\Debug/srcc/emuart.c:185
	uart_send1(UART_NO,emuartFrameHead[0]);
    8168:	4c13      	ldr	r4, [pc, #76]	; (81b8 <sendFrame+0x60>)
    816a:	7820      	ldrb	r0, [r4, #0]
    816c:	21a5      	movs	r1, #165	; 0xa5
    816e:	f000 fbe5 	bl	893c <uart_send1>
D:\Users\lihaifeng\Desktop\嵌入式\实验考核题目\1\Flash_KL36_20201030\Debug/srcc/emuart.c:186
	uart_send1(UART_NO,emuartFrameHead[1]);
    8172:	7820      	ldrb	r0, [r4, #0]
    8174:	2106      	movs	r1, #6
    8176:	f000 fbe1 	bl	893c <uart_send1>
D:\Users\lihaifeng\Desktop\嵌入式\实验考核题目\1\Flash_KL36_20201030\Debug/srcc/emuart.c:188
	uart_send1(UART_NO,length>>8);
    817a:	0a31      	lsrs	r1, r6, #8
    817c:	7820      	ldrb	r0, [r4, #0]
    817e:	f000 fbdd 	bl	893c <uart_send1>
D:\Users\lihaifeng\Desktop\嵌入式\实验考核题目\1\Flash_KL36_20201030\Debug/srcc/emuart.c:189
	uart_send1(UART_NO,length);
    8182:	b2f1      	uxtb	r1, r6
    8184:	7820      	ldrb	r0, [r4, #0]
    8186:	f000 fbd9 	bl	893c <uart_send1>
D:\Users\lihaifeng\Desktop\嵌入式\实验考核题目\1\Flash_KL36_20201030\Debug/srcc/emuart.c:191
	uart_sendN(UART_NO,length,data);
    818a:	7820      	ldrb	r0, [r4, #0]
    818c:	003a      	movs	r2, r7
    818e:	0031      	movs	r1, r6
    8190:	f000 fc02 	bl	8998 <uart_sendN>
D:\Users\lihaifeng\Desktop\嵌入式\实验考核题目\1\Flash_KL36_20201030\Debug/srcc/emuart.c:193
	uart_send1(UART_NO,crc>>8);
    8194:	0a29      	lsrs	r1, r5, #8
    8196:	b2c9      	uxtb	r1, r1
    8198:	7820      	ldrb	r0, [r4, #0]
    819a:	f000 fbcf 	bl	893c <uart_send1>
D:\Users\lihaifeng\Desktop\嵌入式\实验考核题目\1\Flash_KL36_20201030\Debug/srcc/emuart.c:194
	uart_send1(UART_NO,crc);
    819e:	b2e9      	uxtb	r1, r5
    81a0:	7820      	ldrb	r0, [r4, #0]
    81a2:	f000 fbcb 	bl	893c <uart_send1>
D:\Users\lihaifeng\Desktop\嵌入式\实验考核题目\1\Flash_KL36_20201030\Debug/srcc/emuart.c:196
	uart_send1(UART_NO,emuartFrameTail[0]);
    81a6:	7820      	ldrb	r0, [r4, #0]
    81a8:	21b6      	movs	r1, #182	; 0xb6
    81aa:	f000 fbc7 	bl	893c <uart_send1>
D:\Users\lihaifeng\Desktop\嵌入式\实验考核题目\1\Flash_KL36_20201030\Debug/srcc/emuart.c:197
	uart_send1(UART_NO,emuartFrameTail[1]);
    81ae:	7820      	ldrb	r0, [r4, #0]
    81b0:	2107      	movs	r1, #7
    81b2:	f000 fbc3 	bl	893c <uart_send1>
D:\Users\lihaifeng\Desktop\嵌入式\实验考核题目\1\Flash_KL36_20201030\Debug/srcc/emuart.c:198
}
    81b6:	bdf8      	pop	{r3, r4, r5, r6, r7, pc}
    81b8:	20000400 	.word	0x20000400

000081bc <emuart_send_string>:
emuart_send_string():
D:\Users\lihaifeng\Desktop\嵌入式\实验考核题目\1\Flash_KL36_20201030\Debug/srcc/emuart.c:62
{
    81bc:	b510      	push	{r4, lr}
    81be:	0001      	movs	r1, r0
D:\Users\lihaifeng\Desktop\嵌入式\实验考核题目\1\Flash_KL36_20201030\Debug/srcc/emuart.c:63
	uint16_t len=0;
    81c0:	2000      	movs	r0, #0
D:\Users\lihaifeng\Desktop\嵌入式\实验考核题目\1\Flash_KL36_20201030\Debug/srcc/emuart.c:64
	while(buff[len])len++;
    81c2:	e001      	b.n	81c8 <emuart_send_string+0xc>
D:\Users\lihaifeng\Desktop\嵌入式\实验考核题目\1\Flash_KL36_20201030\Debug/srcc/emuart.c:64 (discriminator 2)
    81c4:	3001      	adds	r0, #1
    81c6:	b280      	uxth	r0, r0
D:\Users\lihaifeng\Desktop\嵌入式\实验考核题目\1\Flash_KL36_20201030\Debug/srcc/emuart.c:64 (discriminator 1)
    81c8:	5c0b      	ldrb	r3, [r1, r0]
    81ca:	2b00      	cmp	r3, #0
    81cc:	d1fa      	bne.n	81c4 <emuart_send_string+0x8>
D:\Users\lihaifeng\Desktop\嵌入式\实验考核题目\1\Flash_KL36_20201030\Debug/srcc/emuart.c:65
	sendFrame(len,buff);
    81ce:	f7ff ffc3 	bl	8158 <sendFrame>
D:\Users\lihaifeng\Desktop\嵌入式\实验考核题目\1\Flash_KL36_20201030\Debug/srcc/emuart.c:66
}
    81d2:	bd10      	pop	{r4, pc}

000081d4 <emuart_recv>:
emuart_recv():
D:\Users\lihaifeng\Desktop\嵌入式\实验考核题目\1\Flash_KL36_20201030\Debug/srcc/emuart.c:80
{
    81d4:	b570      	push	{r4, r5, r6, lr}
    81d6:	000e      	movs	r6, r1
D:\Users\lihaifeng\Desktop\嵌入式\实验考核题目\1\Flash_KL36_20201030\Debug/srcc/emuart.c:115
	if((index == 0 && ch != emuartFrameHead[0]) ||
    81d8:	4b35      	ldr	r3, [pc, #212]	; (82b0 <emuart_recv+0xdc>)
    81da:	881b      	ldrh	r3, [r3, #0]
    81dc:	2b00      	cmp	r3, #0
    81de:	d109      	bne.n	81f4 <emuart_recv+0x20>
D:\Users\lihaifeng\Desktop\嵌入式\实验考核题目\1\Flash_KL36_20201030\Debug/srcc/emuart.c:115 (discriminator 1)
    81e0:	28a5      	cmp	r0, #165	; 0xa5
    81e2:	d007      	beq.n	81f4 <emuart_recv+0x20>
D:\Users\lihaifeng\Desktop\嵌入式\实验考核题目\1\Flash_KL36_20201030\Debug/srcc/emuart.c:118
		index = 0;
    81e4:	2300      	movs	r3, #0
    81e6:	4a32      	ldr	r2, [pc, #200]	; (82b0 <emuart_recv+0xdc>)
    81e8:	8013      	strh	r3, [r2, #0]
D:\Users\lihaifeng\Desktop\嵌入式\实验考核题目\1\Flash_KL36_20201030\Debug/srcc/emuart.c:119
		length = 0;
    81ea:	4a32      	ldr	r2, [pc, #200]	; (82b4 <emuart_recv+0xe0>)
    81ec:	8013      	strh	r3, [r2, #0]
D:\Users\lihaifeng\Desktop\嵌入式\实验考核题目\1\Flash_KL36_20201030\Debug/srcc/emuart.c:120
		ret_val = 0;     //接收数据错误
    81ee:	2400      	movs	r4, #0
D:\Users\lihaifeng\Desktop\嵌入式\实验考核题目\1\Flash_KL36_20201030\Debug/srcc/emuart.c:169
}
    81f0:	0020      	movs	r0, r4
    81f2:	bd70      	pop	{r4, r5, r6, pc}
D:\Users\lihaifeng\Desktop\嵌入式\实验考核题目\1\Flash_KL36_20201030\Debug/srcc/emuart.c:115 (discriminator 3)
	if((index == 0 && ch != emuartFrameHead[0]) ||
    81f4:	2b01      	cmp	r3, #1
    81f6:	d021      	beq.n	823c <emuart_recv+0x68>
D:\Users\lihaifeng\Desktop\嵌入式\实验考核题目\1\Flash_KL36_20201030\Debug/srcc/emuart.c:124
	data[index++] = ch;
    81f8:	1c5d      	adds	r5, r3, #1
    81fa:	b2ad      	uxth	r5, r5
    81fc:	4a2c      	ldr	r2, [pc, #176]	; (82b0 <emuart_recv+0xdc>)
    81fe:	8015      	strh	r5, [r2, #0]
    8200:	54f0      	strb	r0, [r6, r3]
D:\Users\lihaifeng\Desktop\嵌入式\实验考核题目\1\Flash_KL36_20201030\Debug/srcc/emuart.c:126
	if(index == 4)
    8202:	2d04      	cmp	r5, #4
    8204:	d01d      	beq.n	8242 <emuart_recv+0x6e>
D:\Users\lihaifeng\Desktop\嵌入式\实验考核题目\1\Flash_KL36_20201030\Debug/srcc/emuart.c:132
	if(length != 0 && index >= length+8)
    8206:	4b2b      	ldr	r3, [pc, #172]	; (82b4 <emuart_recv+0xe0>)
    8208:	881c      	ldrh	r4, [r3, #0]
    820a:	2c00      	cmp	r4, #0
    820c:	d0f0      	beq.n	81f0 <emuart_recv+0x1c>
D:\Users\lihaifeng\Desktop\嵌入式\实验考核题目\1\Flash_KL36_20201030\Debug/srcc/emuart.c:132 (discriminator 1)
    820e:	0023      	movs	r3, r4
    8210:	3308      	adds	r3, #8
    8212:	429d      	cmp	r5, r3
    8214:	db4a      	blt.n	82ac <emuart_recv+0xd8>
D:\Users\lihaifeng\Desktop\嵌入式\实验考核题目\1\Flash_KL36_20201030\Debug/srcc/emuart.c:135
		crc = crc16(data+4,length);
    8216:	1d30      	adds	r0, r6, #4
    8218:	0021      	movs	r1, r4
    821a:	f7ff ff7d 	bl	8118 <crc16>
D:\Users\lihaifeng\Desktop\嵌入式\实验考核题目\1\Flash_KL36_20201030\Debug/srcc/emuart.c:136
		CRC1[0] =(uint8_t)( (crc>>8)&0xff);
    821e:	0a02      	lsrs	r2, r0, #8
    8220:	b2d2      	uxtb	r2, r2
D:\Users\lihaifeng\Desktop\嵌入式\实验考核题目\1\Flash_KL36_20201030\Debug/srcc/emuart.c:137
		CRC1[1] = crc&0xff;
    8222:	b2c0      	uxtb	r0, r0
D:\Users\lihaifeng\Desktop\嵌入式\实验考核题目\1\Flash_KL36_20201030\Debug/srcc/emuart.c:139
		if(data[index-2]!=emuartFrameTail[0] || data[index-1]!= emuartFrameTail[1]//未遇到帧尾
    8224:	1973      	adds	r3, r6, r5
    8226:	3b02      	subs	r3, #2
    8228:	781b      	ldrb	r3, [r3, #0]
    822a:	2bb6      	cmp	r3, #182	; 0xb6
    822c:	d010      	beq.n	8250 <emuart_recv+0x7c>
D:\Users\lihaifeng\Desktop\嵌入式\实验考核题目\1\Flash_KL36_20201030\Debug/srcc/emuart.c:143
			index = 0;
    822e:	2300      	movs	r3, #0
    8230:	4a1f      	ldr	r2, [pc, #124]	; (82b0 <emuart_recv+0xdc>)
    8232:	8013      	strh	r3, [r2, #0]
D:\Users\lihaifeng\Desktop\嵌入式\实验考核题目\1\Flash_KL36_20201030\Debug/srcc/emuart.c:144
			length = 0;
    8234:	4a1f      	ldr	r2, [pc, #124]	; (82b4 <emuart_recv+0xe0>)
    8236:	8013      	strh	r3, [r2, #0]
D:\Users\lihaifeng\Desktop\嵌入式\实验考核题目\1\Flash_KL36_20201030\Debug/srcc/emuart.c:145
			ret_val = 0;
    8238:	2400      	movs	r4, #0
D:\Users\lihaifeng\Desktop\嵌入式\实验考核题目\1\Flash_KL36_20201030\Debug/srcc/emuart.c:146
			goto uecom_recv_exit;
    823a:	e7d9      	b.n	81f0 <emuart_recv+0x1c>
D:\Users\lihaifeng\Desktop\嵌入式\实验考核题目\1\Flash_KL36_20201030\Debug/srcc/emuart.c:116
			(index == 1 && ch != emuartFrameHead[1]))
    823c:	2806      	cmp	r0, #6
    823e:	d1d1      	bne.n	81e4 <emuart_recv+0x10>
    8240:	e7da      	b.n	81f8 <emuart_recv+0x24>
D:\Users\lihaifeng\Desktop\嵌入式\实验考核题目\1\Flash_KL36_20201030\Debug/srcc/emuart.c:128
		length = ((uint16_t)data[2]<<8) + data[3];
    8242:	78b3      	ldrb	r3, [r6, #2]
    8244:	021b      	lsls	r3, r3, #8
    8246:	78f2      	ldrb	r2, [r6, #3]
    8248:	189b      	adds	r3, r3, r2
    824a:	4a1a      	ldr	r2, [pc, #104]	; (82b4 <emuart_recv+0xe0>)
    824c:	8013      	strh	r3, [r2, #0]
    824e:	e7da      	b.n	8206 <emuart_recv+0x32>
D:\Users\lihaifeng\Desktop\嵌入式\实验考核题目\1\Flash_KL36_20201030\Debug/srcc/emuart.c:139 (discriminator 1)
		if(data[index-2]!=emuartFrameTail[0] || data[index-1]!= emuartFrameTail[1]//未遇到帧尾
    8250:	1973      	adds	r3, r6, r5
    8252:	3b01      	subs	r3, #1
    8254:	781b      	ldrb	r3, [r3, #0]
    8256:	2b07      	cmp	r3, #7
    8258:	d1e9      	bne.n	822e <emuart_recv+0x5a>
D:\Users\lihaifeng\Desktop\嵌入式\实验考核题目\1\Flash_KL36_20201030\Debug/srcc/emuart.c:140
||	CRC1[0] != data[index-4] || CRC1[1] != data[index-3])//CRC检验错误
    825a:	1973      	adds	r3, r6, r5
    825c:	3b04      	subs	r3, #4
    825e:	781b      	ldrb	r3, [r3, #0]
    8260:	429a      	cmp	r2, r3
    8262:	d1e4      	bne.n	822e <emuart_recv+0x5a>
D:\Users\lihaifeng\Desktop\嵌入式\实验考核题目\1\Flash_KL36_20201030\Debug/srcc/emuart.c:140 (discriminator 1)
    8264:	1975      	adds	r5, r6, r5
    8266:	3d03      	subs	r5, #3
    8268:	782b      	ldrb	r3, [r5, #0]
    826a:	4298      	cmp	r0, r3
    826c:	d1df      	bne.n	822e <emuart_recv+0x5a>
D:\Users\lihaifeng\Desktop\嵌入式\实验考核题目\1\Flash_KL36_20201030\Debug/srcc/emuart.c:149
		for(i=0;i<length;i++)
    826e:	2300      	movs	r3, #0
    8270:	e004      	b.n	827c <emuart_recv+0xa8>
D:\Users\lihaifeng\Desktop\嵌入式\实验考核题目\1\Flash_KL36_20201030\Debug/srcc/emuart.c:151 (discriminator 3)
			data[i] = data[i+4];
    8272:	18f2      	adds	r2, r6, r3
    8274:	7911      	ldrb	r1, [r2, #4]
    8276:	7011      	strb	r1, [r2, #0]
D:\Users\lihaifeng\Desktop\嵌入式\实验考核题目\1\Flash_KL36_20201030\Debug/srcc/emuart.c:149 (discriminator 3)
		for(i=0;i<length;i++)
    8278:	3301      	adds	r3, #1
    827a:	b29b      	uxth	r3, r3
D:\Users\lihaifeng\Desktop\嵌入式\实验考核题目\1\Flash_KL36_20201030\Debug/srcc/emuart.c:149 (discriminator 1)
    827c:	429c      	cmp	r4, r3
    827e:	d8f8      	bhi.n	8272 <emuart_recv+0x9e>
D:\Users\lihaifeng\Desktop\嵌入式\实验考核题目\1\Flash_KL36_20201030\Debug/srcc/emuart.c:153
		index = 0;
    8280:	4b0b      	ldr	r3, [pc, #44]	; (82b0 <emuart_recv+0xdc>)
    8282:	2200      	movs	r2, #0
    8284:	801a      	strh	r2, [r3, #0]
D:\Users\lihaifeng\Desktop\嵌入式\实验考核题目\1\Flash_KL36_20201030\Debug/srcc/emuart.c:155
		data[length] = 0; //令数组长度为0
    8286:	1933      	adds	r3, r6, r4
    8288:	701a      	strb	r2, [r3, #0]
D:\Users\lihaifeng\Desktop\嵌入式\实验考核题目\1\Flash_KL36_20201030\Debug/srcc/emuart.c:157
		if(length == 21 &&
    828a:	2c15      	cmp	r4, #21
    828c:	d003      	beq.n	8296 <emuart_recv+0xc2>
D:\Users\lihaifeng\Desktop\嵌入式\实验考核题目\1\Flash_KL36_20201030\Debug/srcc/emuart.c:163
		length = 0; //令有效数据长度为0
    828e:	4b09      	ldr	r3, [pc, #36]	; (82b4 <emuart_recv+0xe0>)
    8290:	2200      	movs	r2, #0
    8292:	801a      	strh	r2, [r3, #0]
D:\Users\lihaifeng\Desktop\嵌入式\实验考核题目\1\Flash_KL36_20201030\Debug/srcc/emuart.c:164
		goto uecom_recv_exit;
    8294:	e7ac      	b.n	81f0 <emuart_recv+0x1c>
D:\Users\lihaifeng\Desktop\嵌入式\实验考核题目\1\Flash_KL36_20201030\Debug/srcc/emuart.c:158 (discriminator 1)
			!strcmp(data,"[Are you an emuart??]"))
    8296:	4908      	ldr	r1, [pc, #32]	; (82b8 <emuart_recv+0xe4>)
    8298:	0030      	movs	r0, r6
    829a:	f7ff ff2b 	bl	80f4 <strcmp>
D:\Users\lihaifeng\Desktop\嵌入式\实验考核题目\1\Flash_KL36_20201030\Debug/srcc/emuart.c:157 (discriminator 1)
		if(length == 21 &&
    829e:	2800      	cmp	r0, #0
    82a0:	d1f5      	bne.n	828e <emuart_recv+0xba>
D:\Users\lihaifeng\Desktop\嵌入式\实验考核题目\1\Flash_KL36_20201030\Debug/srcc/emuart.c:160
			emuart_send_string("[Yes,I am an emuart!!]");
    82a2:	4806      	ldr	r0, [pc, #24]	; (82bc <emuart_recv+0xe8>)
    82a4:	f7ff ff8a 	bl	81bc <emuart_send_string>
D:\Users\lihaifeng\Desktop\嵌入式\实验考核题目\1\Flash_KL36_20201030\Debug/srcc/emuart.c:161
			ret_val = 0;
    82a8:	2400      	movs	r4, #0
    82aa:	e7f0      	b.n	828e <emuart_recv+0xba>
D:\Users\lihaifeng\Desktop\嵌入式\实验考核题目\1\Flash_KL36_20201030\Debug/srcc/emuart.c:166
	ret_val = 0;
    82ac:	2400      	movs	r4, #0
    82ae:	e79f      	b.n	81f0 <emuart_recv+0x1c>
    82b0:	20000424 	.word	0x20000424
    82b4:	20000426 	.word	0x20000426
    82b8:	00009684 	.word	0x00009684
    82bc:	0000969c 	.word	0x0000969c

000082c0 <SystemInit>:
SystemInit():
D:\Users\lihaifeng\Desktop\嵌入式\实验考核题目\1\Flash_KL36_20201030\Debug/srcc/system_MKL36Z4.c:112
    //看门狗默认为开启，而且复位之后只能开启或关闭看门狗一次
    //SIM_COPC &= ~SIM_COPC_COPT_MASK;    //DISABLE_WDOG 

    /* System clock initialization */
    /* SIM_CLKDIV1: OUTDIV1=0,??=0,??=0,??=0,??=0,??=0,??=0,??=0,??=0,??=0,OUTDIV4=3,??=0,??=0,??=0,??=0,??=0,??=0,??=0,??=0,??=0,??=0,??=0,??=0,??=0,??=0,??=0,??=0 */
    SIM_CLKDIV1 = (SIM_CLKDIV1_OUTDIV1(0x00) | SIM_CLKDIV1_OUTDIV4(0x03)); /* Set the system prescalers to safe value */
    82c0:	4b26      	ldr	r3, [pc, #152]	; (835c <SystemInit+0x9c>)
    82c2:	4a27      	ldr	r2, [pc, #156]	; (8360 <SystemInit+0xa0>)
    82c4:	21c0      	movs	r1, #192	; 0xc0
    82c6:	0289      	lsls	r1, r1, #10
    82c8:	5099      	str	r1, [r3, r2]
D:\Users\lihaifeng\Desktop\嵌入式\实验考核题目\1\Flash_KL36_20201030\Debug/srcc/system_MKL36Z4.c:114
    /* SIM_SCGC5: PORTA=1 */
    SIM_SCGC5 |= SIM_SCGC5_PORTA_MASK;   /* Enable clock gate for ports to enable pin routing */
    82ca:	4926      	ldr	r1, [pc, #152]	; (8364 <SystemInit+0xa4>)
    82cc:	5858      	ldr	r0, [r3, r1]
    82ce:	2280      	movs	r2, #128	; 0x80
    82d0:	0092      	lsls	r2, r2, #2
    82d2:	4302      	orrs	r2, r0
    82d4:	505a      	str	r2, [r3, r1]
D:\Users\lihaifeng\Desktop\嵌入式\实验考核题目\1\Flash_KL36_20201030\Debug/srcc/system_MKL36Z4.c:115
    if ((PMC_REGSC & PMC_REGSC_ACKISO_MASK) != 0x0U) {
    82d6:	4b24      	ldr	r3, [pc, #144]	; (8368 <SystemInit+0xa8>)
    82d8:	789b      	ldrb	r3, [r3, #2]
    82da:	071b      	lsls	r3, r3, #28
    82dc:	d504      	bpl.n	82e8 <SystemInit+0x28>
D:\Users\lihaifeng\Desktop\嵌入式\实验考核题目\1\Flash_KL36_20201030\Debug/srcc/system_MKL36Z4.c:117
        /* PMC_REGSC: ACKISO=1 */
        PMC_REGSC |= PMC_REGSC_ACKISO_MASK; /* Release IO pads after wakeup from VLLS mode. */
    82de:	4a22      	ldr	r2, [pc, #136]	; (8368 <SystemInit+0xa8>)
    82e0:	7893      	ldrb	r3, [r2, #2]
    82e2:	2108      	movs	r1, #8
    82e4:	430b      	orrs	r3, r1
    82e6:	7093      	strb	r3, [r2, #2]
D:\Users\lihaifeng\Desktop\嵌入式\实验考核题目\1\Flash_KL36_20201030\Debug/srcc/system_MKL36Z4.c:120
    }
    /* SIM_CLKDIV1: OUTDIV1=0,??=0,??=0,??=0,??=0,??=0,??=0,??=0,??=0,??=0,OUTDIV4=1,??=0,??=0,??=0,??=0,??=0,??=0,??=0,??=0,??=0,??=0,??=0,??=0,??=0,??=0,??=0,??=0 */
    SIM_CLKDIV1 = (SIM_CLKDIV1_OUTDIV1(0x00) | SIM_CLKDIV1_OUTDIV4(0x01)); /* Update system prescalers */
    82e8:	4b1c      	ldr	r3, [pc, #112]	; (835c <SystemInit+0x9c>)
    82ea:	4a1d      	ldr	r2, [pc, #116]	; (8360 <SystemInit+0xa0>)
    82ec:	2180      	movs	r1, #128	; 0x80
    82ee:	0249      	lsls	r1, r1, #9
    82f0:	5099      	str	r1, [r3, r2]
D:\Users\lihaifeng\Desktop\嵌入式\实验考核题目\1\Flash_KL36_20201030\Debug/srcc/system_MKL36Z4.c:122
    /* SIM_SOPT2: ??=0,PLLFLLSEL=0 */
    SIM_SOPT2 &= (uint32_t)~(uint32_t)((SIM_SOPT2_PLLFLLSEL_MASK | 0x00020000U)); /* Select FLL as a clock source for various peripherals */
    82f2:	4a1e      	ldr	r2, [pc, #120]	; (836c <SystemInit+0xac>)
    82f4:	5899      	ldr	r1, [r3, r2]
    82f6:	481e      	ldr	r0, [pc, #120]	; (8370 <SystemInit+0xb0>)
    82f8:	4001      	ands	r1, r0
    82fa:	5099      	str	r1, [r3, r2]
D:\Users\lihaifeng\Desktop\嵌入式\实验考核题目\1\Flash_KL36_20201030\Debug/srcc/system_MKL36Z4.c:124
    /* SIM_SOPT1: OSC32KSEL=0 */
    SIM_SOPT1 &= (uint32_t)~(uint32_t)(SIM_SOPT1_OSC32KSEL(0x03)); /* System oscillator drives 32 kHz clock for various peripherals */
    82fc:	6819      	ldr	r1, [r3, #0]
    82fe:	481d      	ldr	r0, [pc, #116]	; (8374 <SystemInit+0xb4>)
    8300:	4001      	ands	r1, r0
    8302:	6019      	str	r1, [r3, #0]
D:\Users\lihaifeng\Desktop\嵌入式\实验考核题目\1\Flash_KL36_20201030\Debug/srcc/system_MKL36Z4.c:126
    /* SIM_SOPT2: TPMSRC=1 */
    SIM_SOPT2 = (uint32_t)((SIM_SOPT2 & (uint32_t)~(uint32_t)(
    8304:	5899      	ldr	r1, [r3, r2]
    8306:	481c      	ldr	r0, [pc, #112]	; (8378 <SystemInit+0xb8>)
    8308:	4008      	ands	r0, r1
    830a:	2180      	movs	r1, #128	; 0x80
    830c:	0449      	lsls	r1, r1, #17
    830e:	4301      	orrs	r1, r0
    8310:	5099      	str	r1, [r3, r2]
D:\Users\lihaifeng\Desktop\嵌入式\实验考核题目\1\Flash_KL36_20201030\Debug/srcc/system_MKL36Z4.c:133
    )) | (uint32_t)(
            SIM_SOPT2_TPMSRC(0x01)
    ));                      /* Set the TPM clock */
    /* Switch to FEI Mode */
    /* MCG_C1: CLKS=0,FRDIV=0,IREFS=1,IRCLKEN=1,IREFSTEN=0 */
    MCG_C1 = MCG_C1_CLKS(0x00) |
    8312:	4b1a      	ldr	r3, [pc, #104]	; (837c <SystemInit+0xbc>)
    8314:	2206      	movs	r2, #6
    8316:	701a      	strb	r2, [r3, #0]
D:\Users\lihaifeng\Desktop\嵌入式\实验考核题目\1\Flash_KL36_20201030\Debug/srcc/system_MKL36Z4.c:138
            MCG_C1_FRDIV(0x00) |
            MCG_C1_IREFS_MASK |
            MCG_C1_IRCLKEN_MASK;
    /* MCG_C2: LOCRE0=0,RANGE0=0,HGO0=0,EREFS0=0,LP=0,IRCS=0 */
    MCG_C2 &= (uint8_t)~(uint8_t)(
    8318:	785a      	ldrb	r2, [r3, #1]
    831a:	2140      	movs	r1, #64	; 0x40
    831c:	400a      	ands	r2, r1
    831e:	705a      	strb	r2, [r3, #1]
D:\Users\lihaifeng\Desktop\嵌入式\实验考核题目\1\Flash_KL36_20201030\Debug/srcc/system_MKL36Z4.c:147
            MCG_C2_EREFS0_MASK |
            MCG_C2_LP_MASK |
            MCG_C2_IRCS_MASK
    );
    /* MCG_C4: DMX32=1,DRST_DRS=1 */
    MCG_C4 = (uint8_t)((MCG_C4 & (uint8_t)~(uint8_t)(
    8320:	78d9      	ldrb	r1, [r3, #3]
    8322:	b249      	sxtb	r1, r1
D:\Users\lihaifeng\Desktop\嵌入式\实验考核题目\1\Flash_KL36_20201030\Debug/srcc/system_MKL36Z4.c:149
            MCG_C4_DRST_DRS(0x02)
    )) | (uint8_t)(
    8324:	221f      	movs	r2, #31
    8326:	4011      	ands	r1, r2
    8328:	3a7f      	subs	r2, #127	; 0x7f
    832a:	430a      	orrs	r2, r1
D:\Users\lihaifeng\Desktop\嵌入式\实验考核题目\1\Flash_KL36_20201030\Debug/srcc/system_MKL36Z4.c:147
    MCG_C4 = (uint8_t)((MCG_C4 & (uint8_t)~(uint8_t)(
    832c:	b2d2      	uxtb	r2, r2
    832e:	70da      	strb	r2, [r3, #3]
D:\Users\lihaifeng\Desktop\嵌入式\实验考核题目\1\Flash_KL36_20201030\Debug/srcc/system_MKL36Z4.c:154
            MCG_C4_DMX32_MASK |
            MCG_C4_DRST_DRS(0x01)
    ));
    /* OSC0_CR: ERCLKEN=0,??=0,EREFSTEN=0,??=0,SC2P=0,SC4P=0,SC8P=0,SC16P=0 */
    OSC0_CR = 0x00U;
    8330:	2200      	movs	r2, #0
    8332:	4913      	ldr	r1, [pc, #76]	; (8380 <SystemInit+0xc0>)
    8334:	700a      	strb	r2, [r1, #0]
D:\Users\lihaifeng\Desktop\嵌入式\实验考核题目\1\Flash_KL36_20201030\Debug/srcc/system_MKL36Z4.c:156
    /* MCG_C5: ??=0,PLLCLKEN0=0,PLLSTEN0=0,PRDIV0=0 */
    MCG_C5 = MCG_C5_PRDIV0(0x00);
    8336:	711a      	strb	r2, [r3, #4]
D:\Users\lihaifeng\Desktop\嵌入式\实验考核题目\1\Flash_KL36_20201030\Debug/srcc/system_MKL36Z4.c:158
    /* MCG_C6: LOLIE0=0,PLLS=0,CME0=0,VDIV0=0 */
    MCG_C6 = MCG_C6_VDIV0(0x00);
    8338:	715a      	strb	r2, [r3, #5]
D:\Users\lihaifeng\Desktop\嵌入式\实验考核题目\1\Flash_KL36_20201030\Debug/srcc/system_MKL36Z4.c:159 (discriminator 1)
    while((MCG_S & MCG_S_IREFST_MASK) == 0x00U) { /* Check that the source of the FLL reference clock is the internal reference clock. */
    833a:	4b10      	ldr	r3, [pc, #64]	; (837c <SystemInit+0xbc>)
    833c:	799b      	ldrb	r3, [r3, #6]
    833e:	06db      	lsls	r3, r3, #27
    8340:	d5fb      	bpl.n	833a <SystemInit+0x7a>
D:\Users\lihaifeng\Desktop\嵌入式\实验考核题目\1\Flash_KL36_20201030\Debug/srcc/system_MKL36Z4.c:161 (discriminator 1)
    }
    while((MCG_S & 0x0CU) != 0x00U) {    /* Wait until output of the FLL is selected */
    8342:	4b0e      	ldr	r3, [pc, #56]	; (837c <SystemInit+0xbc>)
    8344:	799a      	ldrb	r2, [r3, #6]
    8346:	230c      	movs	r3, #12
    8348:	421a      	tst	r2, r3
    834a:	d1fa      	bne.n	8342 <SystemInit+0x82>
D:\Users\lihaifeng\Desktop\嵌入式\实验考核题目\1\Flash_KL36_20201030\Debug/srcc/system_MKL36Z4.c:234
    //        if (((MCG_S & MCG_S_CLKST_MASK) >> MCG_S_CLKST_SHIFT) == 0x3) break;
    //    }
    //    //4.现在处于PEE模式

    //开启PORT模块时钟
    SIM->SCGC5 |= SIM_SCGC5_PORTA_MASK
    834c:	4903      	ldr	r1, [pc, #12]	; (835c <SystemInit+0x9c>)
    834e:	4a05      	ldr	r2, [pc, #20]	; (8364 <SystemInit+0xa4>)
    8350:	5888      	ldr	r0, [r1, r2]
    8352:	23f8      	movs	r3, #248	; 0xf8
    8354:	019b      	lsls	r3, r3, #6
    8356:	4303      	orrs	r3, r0
    8358:	508b      	str	r3, [r1, r2]
D:\Users\lihaifeng\Desktop\嵌入式\实验考核题目\1\Flash_KL36_20201030\Debug/srcc/system_MKL36Z4.c:239
            | SIM_SCGC5_PORTB_MASK
            | SIM_SCGC5_PORTC_MASK
            | SIM_SCGC5_PORTD_MASK
            | SIM_SCGC5_PORTE_MASK;
}
    835a:	4770      	bx	lr
    835c:	40047000 	.word	0x40047000
    8360:	00001044 	.word	0x00001044
    8364:	00001038 	.word	0x00001038
    8368:	4007d000 	.word	0x4007d000
    836c:	00001004 	.word	0x00001004
    8370:	fffcffff 	.word	0xfffcffff
    8374:	fff3ffff 	.word	0xfff3ffff
    8378:	fcffffff 	.word	0xfcffffff
    837c:	40064000 	.word	0x40064000
    8380:	40065000 	.word	0x40065000

00008384 <systick_init>:
systick_init():
D:\Users\lihaifeng\Desktop\嵌入式\实验考核题目\1\Flash_KL36_20201030\Debug/srcc/systick.c:18
//参数说明：int_ms:中断的时间间隔(1~5000ms)
//功能概要：初始化SysTick模块，设置中断的时间间隔
//简要说明：使用内核时钟，其频率SYSTEM_CLK_KHZ在common.h中宏定义
//===========================================================================
void systick_init( uint8_t int_ms)
{
    8384:	b510      	push	{r4, lr}
    8386:	0004      	movs	r4, r0
D:\Users\lihaifeng\Desktop\嵌入式\实验考核题目\1\Flash_KL36_20201030\Debug/srcc/systick.c:19
    SysTick->CTRL = 0;   //设置前先关闭systick。CTRL控制及状态寄存器
    8388:	4b0e      	ldr	r3, [pc, #56]	; (83c4 <systick_init+0x40>)
    838a:	2200      	movs	r2, #0
    838c:	601a      	str	r2, [r3, #0]
D:\Users\lihaifeng\Desktop\嵌入式\实验考核题目\1\Flash_KL36_20201030\Debug/srcc/systick.c:20
    SysTick->VAL  = 0;   //清除计数器。VAL 计数器
    838e:	609a      	str	r2, [r3, #8]
D:\Users\lihaifeng\Desktop\嵌入式\实验考核题目\1\Flash_KL36_20201030\Debug/srcc/systick.c:21
    if((int_ms<1)||(int_ms>5592))
    8390:	2800      	cmp	r0, #0
    8392:	d100      	bne.n	8396 <systick_init+0x12>
D:\Users\lihaifeng\Desktop\嵌入式\实验考核题目\1\Flash_KL36_20201030\Debug/srcc/systick.c:23
    {
       int_ms = 10;
    8394:	340a      	adds	r4, #10
D:\Users\lihaifeng\Desktop\嵌入式\实验考核题目\1\Flash_KL36_20201030\Debug/srcc/systick.c:25
    }
    SysTick->LOAD = MCU_SYSTEM_CLK_KHZ*int_ms/16;
    8396:	4b0c      	ldr	r3, [pc, #48]	; (83c8 <systick_init+0x44>)
    8398:	6818      	ldr	r0, [r3, #0]
    839a:	21fa      	movs	r1, #250	; 0xfa
    839c:	0089      	lsls	r1, r1, #2
    839e:	f7fe fc83 	bl	6ca8 <__udivsi3>
    83a2:	4360      	muls	r0, r4
    83a4:	0900      	lsrs	r0, r0, #4
    83a6:	4a07      	ldr	r2, [pc, #28]	; (83c4 <systick_init+0x40>)
    83a8:	6050      	str	r0, [r2, #4]
NVIC_SetPriority():
D:\Users\lihaifeng\Desktop\嵌入式\实验考核题目\1\Flash_KL36_20201030\02_CPU/core_cm0plus.h:753
    \param [in]  priority  Priority to set.
 */
__STATIC_INLINE void NVIC_SetPriority(IRQn_Type IRQn, uint32_t priority)
{
  if((int32_t)(IRQn) < 0) {
    SCB->SHP[_SHP_IDX(IRQn)] = ((uint32_t)(SCB->SHP[_SHP_IDX(IRQn)] & ~(0xFFUL << _BIT_SHIFT(IRQn))) |
    83aa:	4808      	ldr	r0, [pc, #32]	; (83cc <systick_init+0x48>)
    83ac:	6a03      	ldr	r3, [r0, #32]
    83ae:	021b      	lsls	r3, r3, #8
    83b0:	0a1b      	lsrs	r3, r3, #8
    83b2:	21c0      	movs	r1, #192	; 0xc0
    83b4:	0609      	lsls	r1, r1, #24
    83b6:	430b      	orrs	r3, r1
    83b8:	6203      	str	r3, [r0, #32]
systick_init():
D:\Users\lihaifeng\Desktop\嵌入式\实验考核题目\1\Flash_KL36_20201030\Debug/srcc/systick.c:29
    //设定 SysTick优先级为3(SHPR3寄存器的最高字节=0xC0)
    NVIC_SetPriority (SysTick_IRQn, (1UL << __NVIC_PRIO_BITS) - 1UL);
    //设置时钟源,允许中断,使能该模块,开始计数
    SysTick->CTRL |= ( SysTick_CTRL_ENABLE_Msk|SysTick_CTRL_TICKINT_Msk );
    83ba:	6813      	ldr	r3, [r2, #0]
    83bc:	2103      	movs	r1, #3
    83be:	430b      	orrs	r3, r1
    83c0:	6013      	str	r3, [r2, #0]
D:\Users\lihaifeng\Desktop\嵌入式\实验考核题目\1\Flash_KL36_20201030\Debug/srcc/systick.c:30
}
    83c2:	bd10      	pop	{r4, pc}
    83c4:	e000e010 	.word	0xe000e010
    83c8:	20000404 	.word	0x20000404
    83cc:	e000ed00 	.word	0xe000ed00

000083d0 <main>:
main():
D:\Users\lihaifeng\Desktop\嵌入式\实验考核题目\1\Flash_KL36_20201030\Debug/srcc/main.c:18
//main.c使用的内部函数声明处

//----------------------------------------------------------------------
//主函数，一般情况下可以认为程序从此开始运行（实际上有启动过程见书稿）
int main(void)
{
    83d0:	b570      	push	{r4, r5, r6, lr}
D:\Users\lihaifeng\Desktop\嵌入式\实验考核题目\1\Flash_KL36_20201030\Debug/srcc/main.c:25
    //（1.1）声明main函数使用的局部变量
    uint8_t  mFlag;           //主循环使用的临时变量
    uint8_t  mSec;	         //记当前秒的值
    
    //（1.2）【不变】关总中断
    DISABLE_INTERRUPTS;
    83d2:	b672      	cpsid	i
D:\Users\lihaifeng\Desktop\嵌入式\实验考核题目\1\Flash_KL36_20201030\Debug/srcc/main.c:26
    wdog_stop();
    83d4:	f000 f9ac 	bl	8730 <wdog_stop>
D:\Users\lihaifeng\Desktop\嵌入式\实验考核题目\1\Flash_KL36_20201030\Debug/srcc/main.c:33
    //（1.3）给主函数使用的局部变量赋初值

    mFlag='A';              //主循环使用的临时变量：蓝灯状态标志
    //（1.4）给全局变量赋初值
   	//"时分秒"缓存初始化(00:00:00)
   	gTime[0] = 0;       //时
    83d8:	4b33      	ldr	r3, [pc, #204]	; (84a8 <main+0xd8>)
    83da:	2200      	movs	r2, #0
    83dc:	701a      	strb	r2, [r3, #0]
D:\Users\lihaifeng\Desktop\嵌入式\实验考核题目\1\Flash_KL36_20201030\Debug/srcc/main.c:34
   	gTime[1] = 0;	  	//分
    83de:	705a      	strb	r2, [r3, #1]
D:\Users\lihaifeng\Desktop\嵌入式\实验考核题目\1\Flash_KL36_20201030\Debug/srcc/main.c:35
   	gTime[2] = 0;	  	//秒
    83e0:	709a      	strb	r2, [r3, #2]
D:\Users\lihaifeng\Desktop\嵌入式\实验考核题目\1\Flash_KL36_20201030\Debug/srcc/main.c:38
   	mSec = gTime[2];	//记住当前秒的值
    //（1.5）用户外设模块初始化
    gpio_init(LIGHT_BLUE,GPIO_OUTPUT,LIGHT_OFF);    //初始化蓝灯
    83e2:	3201      	adds	r2, #1
    83e4:	2101      	movs	r1, #1
    83e6:	200d      	movs	r0, #13
    83e8:	f000 f966 	bl	86b8 <gpio_init>
D:\Users\lihaifeng\Desktop\嵌入式\实验考核题目\1\Flash_KL36_20201030\Debug/srcc/main.c:39
    uart_init(UART_User,115200);              
    83ec:	24e1      	movs	r4, #225	; 0xe1
    83ee:	0264      	lsls	r4, r4, #9
    83f0:	0021      	movs	r1, r4
    83f2:	2000      	movs	r0, #0
    83f4:	f000 f9fe 	bl	87f4 <uart_init>
D:\Users\lihaifeng\Desktop\嵌入式\实验考核题目\1\Flash_KL36_20201030\Debug/srcc/main.c:40
    uart_init(UART_Debug, 115200);
    83f8:	0021      	movs	r1, r4
    83fa:	2002      	movs	r0, #2
    83fc:	f000 f9fa 	bl	87f4 <uart_init>
D:\Users\lihaifeng\Desktop\嵌入式\实验考核题目\1\Flash_KL36_20201030\Debug/srcc/main.c:41
    systick_init(10);      //设置systick为10ms中断
    8400:	200a      	movs	r0, #10
    8402:	f7ff ffbf 	bl	8384 <systick_init>
D:\Users\lihaifeng\Desktop\嵌入式\实验考核题目\1\Flash_KL36_20201030\Debug/srcc/main.c:44
    //（1.6）使能模块中断
    //（1.7）【不变】开总中断
    ENABLE_INTERRUPTS;
    8406:	b662      	cpsie	i
D:\Users\lihaifeng\Desktop\嵌入式\实验考核题目\1\Flash_KL36_20201030\Debug/srcc/main.c:46
    
    printf("------------------------------------------------------\n"); 
    8408:	4c28      	ldr	r4, [pc, #160]	; (84ac <main+0xdc>)
    840a:	0020      	movs	r0, r4
    840c:	f001 f8e6 	bl	95dc <myprintf>
D:\Users\lihaifeng\Desktop\嵌入式\实验考核题目\1\Flash_KL36_20201030\Debug/srcc/main.c:47
    printf("金葫芦提示：FLASH实例 \n");
    8410:	4827      	ldr	r0, [pc, #156]	; (84b0 <main+0xe0>)
    8412:	f001 f8e3 	bl	95dc <myprintf>
D:\Users\lihaifeng\Desktop\嵌入式\实验考核题目\1\Flash_KL36_20201030\Debug/srcc/main.c:48
    printf("  ① 蓝灯闪烁,配合Flash-Csharp程序进行读写\n");
    8416:	4827      	ldr	r0, [pc, #156]	; (84b4 <main+0xe4>)
    8418:	f001 f8e0 	bl	95dc <myprintf>
D:\Users\lihaifeng\Desktop\嵌入式\实验考核题目\1\Flash_KL36_20201030\Debug/srcc/main.c:49
	printf("  ② 擦除,读取,写入格式如下:\r\n");
    841c:	4826      	ldr	r0, [pc, #152]	; (84b8 <main+0xe8>)
    841e:	f001 f8dd 	bl	95dc <myprintf>
D:\Users\lihaifeng\Desktop\嵌入式\实验考核题目\1\Flash_KL36_20201030\Debug/srcc/main.c:50
	printf("  ③ 擦    除 E：输入正确的扇区号，点击Flash写测试按钮\r\n");
    8422:	4826      	ldr	r0, [pc, #152]	; (84bc <main+0xec>)
    8424:	f001 f8da 	bl	95dc <myprintf>
D:\Users\lihaifeng\Desktop\嵌入式\实验考核题目\1\Flash_KL36_20201030\Debug/srcc/main.c:51
	printf("  ④ 读    取 R（逻辑地址）：输入正确的Flash信息，点击读测试（逻辑地址按钮）\r\n");
    8428:	4825      	ldr	r0, [pc, #148]	; (84c0 <main+0xf0>)
    842a:	f001 f8d7 	bl	95dc <myprintf>
D:\Users\lihaifeng\Desktop\嵌入式\实验考核题目\1\Flash_KL36_20201030\Debug/srcc/main.c:52
	printf("  ⑤ 读    取 A（物理地址）：输入正确的Flash信息，点击读测试（物理地址按钮）\r\n");
    842e:	4825      	ldr	r0, [pc, #148]	; (84c4 <main+0xf4>)
    8430:	f001 f8d4 	bl	95dc <myprintf>
D:\Users\lihaifeng\Desktop\嵌入式\实验考核题目\1\Flash_KL36_20201030\Debug/srcc/main.c:53
	printf("  ⑥ 写    入 W：输入正确的Flash信息，点击Flash写测试按钮\r\n");
    8434:	4824      	ldr	r0, [pc, #144]	; (84c8 <main+0xf8>)
    8436:	f001 f8d1 	bl	95dc <myprintf>
D:\Users\lihaifeng\Desktop\嵌入式\实验考核题目\1\Flash_KL36_20201030\Debug/srcc/main.c:54
    printf("  ⑦ 请退出本界面，运行Flash-Csharp程序   \n");
    843a:	4824      	ldr	r0, [pc, #144]	; (84cc <main+0xfc>)
    843c:	f001 f8ce 	bl	95dc <myprintf>
D:\Users\lihaifeng\Desktop\嵌入式\实验考核题目\1\Flash_KL36_20201030\Debug/srcc/main.c:55
    printf("------------------------------------------------------\n"); 
    8440:	0020      	movs	r0, r4
    8442:	f001 f8cb 	bl	95dc <myprintf>
D:\Users\lihaifeng\Desktop\嵌入式\实验考核题目\1\Flash_KL36_20201030\Debug/srcc/main.c:36
   	mSec = gTime[2];	//记住当前秒的值
    8446:	2500      	movs	r5, #0
D:\Users\lihaifeng\Desktop\嵌入式\实验考核题目\1\Flash_KL36_20201030\Debug/srcc/main.c:30
    mFlag='A';              //主循环使用的临时变量：蓝灯状态标志
    8448:	2641      	movs	r6, #65	; 0x41
    844a:	e00f      	b.n	846c <main+0x9c>
D:\Users\lihaifeng\Desktop\嵌入式\实验考核题目\1\Flash_KL36_20201030\Debug/srcc/main.c:72
   		mSec=gTime[2];
//        以下是1秒到的处理，灯的状态切换（这样灯每秒闪一次）
//        切换灯状态
        if (mFlag=='A')   //若灯状态标志为'A'
        {
            gpio_set(LIGHT_BLUE,LIGHT_ON);   //设置灯“亮”
    844c:	2100      	movs	r1, #0
    844e:	200d      	movs	r0, #13
    8450:	f000 f910 	bl	8674 <gpio_set>
D:\Users\lihaifeng\Desktop\嵌入式\实验考核题目\1\Flash_KL36_20201030\Debug/srcc/main.c:73
            printf("%d:%d:%d",gTime[0],gTime[1],gTime[2]);
    8454:	4b14      	ldr	r3, [pc, #80]	; (84a8 <main+0xd8>)
    8456:	7819      	ldrb	r1, [r3, #0]
    8458:	785a      	ldrb	r2, [r3, #1]
    845a:	789b      	ldrb	r3, [r3, #2]
    845c:	481c      	ldr	r0, [pc, #112]	; (84d0 <main+0x100>)
    845e:	f001 f8bd 	bl	95dc <myprintf>
D:\Users\lihaifeng\Desktop\嵌入式\实验考核题目\1\Flash_KL36_20201030\Debug/srcc/main.c:74
            printf("蓝灯：亮\n");             //通过调试串口输出灯的状态
    8462:	481c      	ldr	r0, [pc, #112]	; (84d4 <main+0x104>)
    8464:	f001 f8ba 	bl	95dc <myprintf>
D:\Users\lihaifeng\Desktop\嵌入式\实验考核题目\1\Flash_KL36_20201030\Debug/srcc/main.c:67
   		mSec=gTime[2];
    8468:	0025      	movs	r5, r4
D:\Users\lihaifeng\Desktop\嵌入式\实验考核题目\1\Flash_KL36_20201030\Debug/srcc/main.c:75
            mFlag='L';                        //改变状态标志
    846a:	360b      	adds	r6, #11
D:\Users\lihaifeng\Desktop\嵌入式\实验考核题目\1\Flash_KL36_20201030\Debug/srcc/main.c:65
        __asm("NOP");
    846c:	46c0      	nop			; (mov r8, r8)
D:\Users\lihaifeng\Desktop\嵌入式\实验考核题目\1\Flash_KL36_20201030\Debug/srcc/main.c:66
        if (gTime[2] == mSec||gTime[2]==( mSec+1)%60)   continue;
    846e:	4b0e      	ldr	r3, [pc, #56]	; (84a8 <main+0xd8>)
    8470:	789c      	ldrb	r4, [r3, #2]
    8472:	42ac      	cmp	r4, r5
    8474:	d0fa      	beq.n	846c <main+0x9c>
D:\Users\lihaifeng\Desktop\嵌入式\实验考核题目\1\Flash_KL36_20201030\Debug/srcc/main.c:66 (discriminator 2)
    8476:	1c68      	adds	r0, r5, #1
    8478:	213c      	movs	r1, #60	; 0x3c
    847a:	f7fe fd85 	bl	6f88 <__aeabi_idivmod>
    847e:	428c      	cmp	r4, r1
    8480:	d0f4      	beq.n	846c <main+0x9c>
D:\Users\lihaifeng\Desktop\嵌入式\实验考核题目\1\Flash_KL36_20201030\Debug/srcc/main.c:70
        if (mFlag=='A')   //若灯状态标志为'A'
    8482:	2e41      	cmp	r6, #65	; 0x41
    8484:	d0e2      	beq.n	844c <main+0x7c>
D:\Users\lihaifeng\Desktop\嵌入式\实验考核题目\1\Flash_KL36_20201030\Debug/srcc/main.c:79
        }
        else                   //否则,若灯状态标志不为'A'
        {
            gpio_set(LIGHT_BLUE,LIGHT_OFF);  //设置灯“暗”
    8486:	2101      	movs	r1, #1
    8488:	200d      	movs	r0, #13
    848a:	f000 f8f3 	bl	8674 <gpio_set>
D:\Users\lihaifeng\Desktop\嵌入式\实验考核题目\1\Flash_KL36_20201030\Debug/srcc/main.c:80
            printf("%d:%d:%d",gTime[0],gTime[1],gTime[2]);
    848e:	4b06      	ldr	r3, [pc, #24]	; (84a8 <main+0xd8>)
    8490:	7819      	ldrb	r1, [r3, #0]
    8492:	785a      	ldrb	r2, [r3, #1]
    8494:	789b      	ldrb	r3, [r3, #2]
    8496:	480e      	ldr	r0, [pc, #56]	; (84d0 <main+0x100>)
    8498:	f001 f8a0 	bl	95dc <myprintf>
D:\Users\lihaifeng\Desktop\嵌入式\实验考核题目\1\Flash_KL36_20201030\Debug/srcc/main.c:81
            printf("蓝灯：暗\n");             //通过调试串口输出灯的状态
    849c:	480e      	ldr	r0, [pc, #56]	; (84d8 <main+0x108>)
    849e:	f001 f89d 	bl	95dc <myprintf>
D:\Users\lihaifeng\Desktop\嵌入式\实验考核题目\1\Flash_KL36_20201030\Debug/srcc/main.c:67
   		mSec=gTime[2];
    84a2:	0025      	movs	r5, r4
D:\Users\lihaifeng\Desktop\嵌入式\实验考核题目\1\Flash_KL36_20201030\Debug/srcc/main.c:82
            mFlag='A';                        //改变状态标志
    84a4:	2641      	movs	r6, #65	; 0x41
    84a6:	e7e1      	b.n	846c <main+0x9c>
    84a8:	2000042c 	.word	0x2000042c
    84ac:	000096b4 	.word	0x000096b4
    84b0:	000096ec 	.word	0x000096ec
    84b4:	00009704 	.word	0x00009704
    84b8:	00009730 	.word	0x00009730
    84bc:	00009750 	.word	0x00009750
    84c0:	0000978c 	.word	0x0000978c
    84c4:	000097dc 	.word	0x000097dc
    84c8:	0000982c 	.word	0x0000982c
    84cc:	00009868 	.word	0x00009868
    84d0:	00009894 	.word	0x00009894
    84d4:	000098a0 	.word	0x000098a0
    84d8:	000098ac 	.word	0x000098ac

000084dc <flash_read_logic>:
flash_read_logic():
D:\Users\lihaifeng\Desktop\嵌入式\实验考核题目\1\Flash_KL36_20201030\Debug/srcc/flash.c:188
//        dest：读出数据存放处（传地址，目的是带出所读数据，RAM区）
//功能概要：读取flash存储器的sect扇区的 offset处开始的N字节，到RAM区dest处
//========================================================================
void flash_read_logic(uint8_t *dest,uint16_t sect,
                                  uint16_t offset,uint16_t N)
{
    84dc:	b510      	push	{r4, lr}
D:\Users\lihaifeng\Desktop\嵌入式\实验考核题目\1\Flash_KL36_20201030\Debug/srcc/flash.c:190
	uint8_t *src;
	src=(uint8_t *)(sect*1024+offset);
    84de:	0289      	lsls	r1, r1, #10
    84e0:	1851      	adds	r1, r2, r1
D:\Users\lihaifeng\Desktop\嵌入式\实验考核题目\1\Flash_KL36_20201030\Debug/srcc/flash.c:191
	memcpy(dest,src,N);
    84e2:	001a      	movs	r2, r3
    84e4:	f001 f88c 	bl	9600 <memcpy>
D:\Users\lihaifeng\Desktop\嵌入式\实验考核题目\1\Flash_KL36_20201030\Debug/srcc/flash.c:192
}
    84e8:	bd10      	pop	{r4, pc}

000084ea <flash_read_physical>:
flash_read_physical():
D:\Users\lihaifeng\Desktop\嵌入式\实验考核题目\1\Flash_KL36_20201030\Debug/srcc/flash.c:203
//       addr：目标地址，要求为4的倍数（例如：0x00000004）
//       N：读字节数目（0~1020,要求为4，8,12,......）
//功能概要：读取flash指定地址的内容
//======================================================================
void flash_read_physical(uint8_t *dest,uint32_t addr,uint16_t N)
{
    84ea:	b510      	push	{r4, lr}
D:\Users\lihaifeng\Desktop\嵌入式\实验考核题目\1\Flash_KL36_20201030\Debug/srcc/flash.c:206
	uint8_t *src;
	src=(uint8_t *)addr;
	memcpy(dest,src,N);
    84ec:	f001 f888 	bl	9600 <memcpy>
D:\Users\lihaifeng\Desktop\嵌入式\实验考核题目\1\Flash_KL36_20201030\Debug/srcc/flash.c:207
}
    84f0:	bd10      	pop	{r4, pc}

000084f2 <flash_isempty>:
flash_isempty():
D:\Users\lihaifeng\Desktop\嵌入式\实验考核题目\1\Flash_KL36_20201030\Debug/srcc/flash.c:254
{
   uint16_t i,flag;
   uint8_t* buff;
   i = 0;
   flag = 1;
   for(i = 0; i<N; i++)   //遍历区域内字节
    84f2:	2300      	movs	r3, #0
D:\Users\lihaifeng\Desktop\嵌入式\实验考核题目\1\Flash_KL36_20201030\Debug/srcc/flash.c:254 (discriminator 1)
    84f4:	428b      	cmp	r3, r1
    84f6:	d206      	bcs.n	8506 <flash_isempty+0x14>
D:\Users\lihaifeng\Desktop\嵌入式\实验考核题目\1\Flash_KL36_20201030\Debug/srcc/flash.c:256
   {
	  buff=(uint8_t*)(sect*0x400);
    84f8:	0282      	lsls	r2, r0, #10
D:\Users\lihaifeng\Desktop\嵌入式\实验考核题目\1\Flash_KL36_20201030\Debug/srcc/flash.c:257
      if(buff[i]!=0xff)   //非空
    84fa:	5cd2      	ldrb	r2, [r2, r3]
    84fc:	2aff      	cmp	r2, #255	; 0xff
    84fe:	d105      	bne.n	850c <flash_isempty+0x1a>
D:\Users\lihaifeng\Desktop\嵌入式\实验考核题目\1\Flash_KL36_20201030\Debug/srcc/flash.c:254 (discriminator 2)
   for(i = 0; i<N; i++)   //遍历区域内字节
    8500:	3301      	adds	r3, #1
    8502:	b29b      	uxth	r3, r3
    8504:	e7f6      	b.n	84f4 <flash_isempty+0x2>
D:\Users\lihaifeng\Desktop\嵌入式\实验考核题目\1\Flash_KL36_20201030\Debug/srcc/flash.c:253
   flag = 1;
    8506:	2001      	movs	r0, #1
D:\Users\lihaifeng\Desktop\嵌入式\实验考核题目\1\Flash_KL36_20201030\Debug/srcc/flash.c:263
      {
      	  flag=0;
          break;
       }
   }
   return flag;
    8508:	b2c0      	uxtb	r0, r0
D:\Users\lihaifeng\Desktop\嵌入式\实验考核题目\1\Flash_KL36_20201030\Debug/srcc/flash.c:264
}
    850a:	4770      	bx	lr
D:\Users\lihaifeng\Desktop\嵌入式\实验考核题目\1\Flash_KL36_20201030\Debug/srcc/flash.c:259
      	  flag=0;
    850c:	2000      	movs	r0, #0
    850e:	e7fb      	b.n	8508 <flash_isempty+0x16>

00008510 <flash_cmd_launch>:
flash_cmd_launch():
D:\Users\lihaifeng\Desktop\嵌入式\实验考核题目\1\Flash_KL36_20201030\Debug/srcc/flash.c:342
//======================================================================
uint32_t flash_cmd_launch(void)
{
	uint8_t irq_flag=0;
    // 清除访问错误标志位和非法访问标志位
    FTFA_FSTAT = ACCERR | FPVIOL;
    8510:	4b0f      	ldr	r3, [pc, #60]	; (8550 <flash_cmd_launch+0x40>)
    8512:	2230      	movs	r2, #48	; 0x30
    8514:	701a      	strb	r2, [r3, #0]
__get_PRIMASK():
D:\Users\lihaifeng\Desktop\嵌入式\实验考核题目\1\Flash_KL36_20201030\02_CPU/core_cmFunc.h:484
 */
__attribute__( ( always_inline ) ) __STATIC_INLINE uint32_t __get_PRIMASK(void)
{
  uint32_t result;

  __ASM volatile ("MRS %0, primask" : "=r" (result) );
    8516:	f3ef 8310 	mrs	r3, PRIMASK
flash_cmd_launch():
D:\Users\lihaifeng\Desktop\嵌入式\实验考核题目\1\Flash_KL36_20201030\Debug/srcc/flash.c:343
    if(__get_PRIMASK() == 0U)
    851a:	2b00      	cmp	r3, #0
    851c:	d112      	bne.n	8544 <flash_cmd_launch+0x34>
__disable_irq():
D:\Users\lihaifeng\Desktop\嵌入式\实验考核题目\1\Flash_KL36_20201030\02_CPU/core_cmFunc.h:344
  __ASM volatile ("cpsid i" : : : "memory");
    851e:	b672      	cpsid	i
flash_cmd_launch():
D:\Users\lihaifeng\Desktop\嵌入式\实验考核题目\1\Flash_KL36_20201030\Debug/srcc/flash.c:346
    {
    	__disable_irq();  //关总中断
    	irq_flag = 1;
    8520:	3a2f      	subs	r2, #47	; 0x2f
D:\Users\lihaifeng\Desktop\嵌入式\实验考核题目\1\Flash_KL36_20201030\Debug/srcc/flash.c:349
    }
    // 启动命令
    FTFA_FSTAT = CCIF;
    8522:	4b0b      	ldr	r3, [pc, #44]	; (8550 <flash_cmd_launch+0x40>)
    8524:	2180      	movs	r1, #128	; 0x80
    8526:	7019      	strb	r1, [r3, #0]
D:\Users\lihaifeng\Desktop\嵌入式\实验考核题目\1\Flash_KL36_20201030\Debug/srcc/flash.c:351 (discriminator 1)
    // 等待命令结束
    while(!(FTFA_FSTAT & CCIF));
    8528:	4b09      	ldr	r3, [pc, #36]	; (8550 <flash_cmd_launch+0x40>)
    852a:	781b      	ldrb	r3, [r3, #0]
    852c:	b25b      	sxtb	r3, r3
    852e:	2b00      	cmp	r3, #0
    8530:	dafa      	bge.n	8528 <flash_cmd_launch+0x18>
D:\Users\lihaifeng\Desktop\嵌入式\实验考核题目\1\Flash_KL36_20201030\Debug/srcc/flash.c:352
    if(irq_flag == 1)
    8532:	2a01      	cmp	r2, #1
    8534:	d008      	beq.n	8548 <flash_cmd_launch+0x38>
D:\Users\lihaifeng\Desktop\嵌入式\实验考核题目\1\Flash_KL36_20201030\Debug/srcc/flash.c:357
    {
    	__enable_irq();  //开总中断
    }
    // 检查错误标志
    if(FTFA_FSTAT & (ACCERR | FPVIOL | MGSTAT0))
    8536:	4b06      	ldr	r3, [pc, #24]	; (8550 <flash_cmd_launch+0x40>)
    8538:	781a      	ldrb	r2, [r3, #0]
    853a:	2331      	movs	r3, #49	; 0x31
    853c:	421a      	tst	r2, r3
    853e:	d105      	bne.n	854c <flash_cmd_launch+0x3c>
D:\Users\lihaifeng\Desktop\嵌入式\实验考核题目\1\Flash_KL36_20201030\Debug/srcc/flash.c:359
        return 1 ; //执行命令出错
    return 0; //执行命令成功
    8540:	2000      	movs	r0, #0
D:\Users\lihaifeng\Desktop\嵌入式\实验考核题目\1\Flash_KL36_20201030\Debug/srcc/flash.c:360
}
    8542:	4770      	bx	lr
D:\Users\lihaifeng\Desktop\嵌入式\实验考核题目\1\Flash_KL36_20201030\Debug/srcc/flash.c:340
	uint8_t irq_flag=0;
    8544:	2200      	movs	r2, #0
    8546:	e7ec      	b.n	8522 <flash_cmd_launch+0x12>
__enable_irq():
D:\Users\lihaifeng\Desktop\嵌入式\实验考核题目\1\Flash_KL36_20201030\02_CPU/core_cmFunc.h:333
  __ASM volatile ("cpsie i" : : : "memory");
    8548:	b662      	cpsie	i
    854a:	e7f4      	b.n	8536 <flash_cmd_launch+0x26>
flash_cmd_launch():
D:\Users\lihaifeng\Desktop\嵌入式\实验考核题目\1\Flash_KL36_20201030\Debug/srcc/flash.c:358
        return 1 ; //执行命令出错
    854c:	2001      	movs	r0, #1
    854e:	e7f8      	b.n	8542 <flash_cmd_launch+0x32>
    8550:	40020000 	.word	0x40020000

00008554 <flash_erase>:
flash_erase():
D:\Users\lihaifeng\Desktop\嵌入式\实验考核题目\1\Flash_KL36_20201030\Debug/srcc/flash.c:50
{
    8554:	b510      	push	{r4, lr}
D:\Users\lihaifeng\Desktop\嵌入式\实验考核题目\1\Flash_KL36_20201030\Debug/srcc/flash.c:57
    dest.word    = (uint32_t)(sect*(1<<10));
    8556:	0284      	lsls	r4, r0, #10
D:\Users\lihaifeng\Desktop\嵌入式\实验考核题目\1\Flash_KL36_20201030\Debug/srcc/flash.c:60
    FTFA_FCCOB0 = ERSSCR; // 擦除扇区命令
    8558:	4b16      	ldr	r3, [pc, #88]	; (85b4 <flash_erase+0x60>)
    855a:	2209      	movs	r2, #9
    855c:	71da      	strb	r2, [r3, #7]
    855e:	0482      	lsls	r2, r0, #18
    8560:	0e12      	lsrs	r2, r2, #24
D:\Users\lihaifeng\Desktop\嵌入式\实验考核题目\1\Flash_KL36_20201030\Debug/srcc/flash.c:63
    FTFA_FCCOB1 = dest.byte[2];
    8562:	719a      	strb	r2, [r3, #6]
    8564:	0680      	lsls	r0, r0, #26
    8566:	0e00      	lsrs	r0, r0, #24
D:\Users\lihaifeng\Desktop\嵌入式\实验考核题目\1\Flash_KL36_20201030\Debug/srcc/flash.c:64
    FTFA_FCCOB2 = dest.byte[1];
    8568:	7158      	strb	r0, [r3, #5]
    856a:	b2e2      	uxtb	r2, r4
D:\Users\lihaifeng\Desktop\嵌入式\实验考核题目\1\Flash_KL36_20201030\Debug/srcc/flash.c:65
    FTFA_FCCOB3 = dest.byte[0];
    856c:	711a      	strb	r2, [r3, #4]
D:\Users\lihaifeng\Desktop\嵌入式\实验考核题目\1\Flash_KL36_20201030\Debug/srcc/flash.c:68
    if(1 == flash_cmd_launch())    //若执行命令出现错误
    856e:	f7ff ffcf 	bl	8510 <flash_cmd_launch>
    8572:	2801      	cmp	r0, #1
    8574:	d01b      	beq.n	85ae <flash_erase+0x5a>
D:\Users\lihaifeng\Desktop\嵌入式\实验考核题目\1\Flash_KL36_20201030\Debug/srcc/flash.c:73
    if(dest.word < 0x400)
    8576:	4b10      	ldr	r3, [pc, #64]	; (85b8 <flash_erase+0x64>)
    8578:	429c      	cmp	r4, r3
    857a:	d901      	bls.n	8580 <flash_erase+0x2c>
D:\Users\lihaifeng\Desktop\嵌入式\实验考核题目\1\Flash_KL36_20201030\Debug/srcc/flash.c:91
    return 0;  //成功返回
    857c:	2000      	movs	r0, #0
D:\Users\lihaifeng\Desktop\嵌入式\实验考核题目\1\Flash_KL36_20201030\Debug/srcc/flash.c:92
}
    857e:	bd10      	pop	{r4, pc}
D:\Users\lihaifeng\Desktop\嵌入式\实验考核题目\1\Flash_KL36_20201030\Debug/srcc/flash.c:76
        FTFA_FCCOB0 = PGM4; 
    8580:	4b0c      	ldr	r3, [pc, #48]	; (85b4 <flash_erase+0x60>)
    8582:	2206      	movs	r2, #6
    8584:	71da      	strb	r2, [r3, #7]
D:\Users\lihaifeng\Desktop\嵌入式\实验考核题目\1\Flash_KL36_20201030\Debug/srcc/flash.c:78
        FTFA_FCCOB1 = 0x00;
    8586:	2200      	movs	r2, #0
    8588:	719a      	strb	r2, [r3, #6]
D:\Users\lihaifeng\Desktop\嵌入式\实验考核题目\1\Flash_KL36_20201030\Debug/srcc/flash.c:79
        FTFA_FCCOB2 = 0x04;
    858a:	3204      	adds	r2, #4
    858c:	715a      	strb	r2, [r3, #5]
D:\Users\lihaifeng\Desktop\嵌入式\实验考核题目\1\Flash_KL36_20201030\Debug/srcc/flash.c:80
        FTFA_FCCOB3 = 0x0C;
    858e:	3208      	adds	r2, #8
    8590:	711a      	strb	r2, [r3, #4]
D:\Users\lihaifeng\Desktop\嵌入式\实验考核题目\1\Flash_KL36_20201030\Debug/srcc/flash.c:82
        FTFA_FCCOB4 = 0xFF;
    8592:	32f3      	adds	r2, #243	; 0xf3
    8594:	72da      	strb	r2, [r3, #11]
D:\Users\lihaifeng\Desktop\嵌入式\实验考核题目\1\Flash_KL36_20201030\Debug/srcc/flash.c:83
        FTFA_FCCOB5 = 0xFF;
    8596:	729a      	strb	r2, [r3, #10]
D:\Users\lihaifeng\Desktop\嵌入式\实验考核题目\1\Flash_KL36_20201030\Debug/srcc/flash.c:84
        FTFA_FCCOB6 = 0xFF;
    8598:	725a      	strb	r2, [r3, #9]
D:\Users\lihaifeng\Desktop\嵌入式\实验考核题目\1\Flash_KL36_20201030\Debug/srcc/flash.c:85
        FTFA_FCCOB7 = 0xFE;
    859a:	3a01      	subs	r2, #1
    859c:	721a      	strb	r2, [r3, #8]
D:\Users\lihaifeng\Desktop\嵌入式\实验考核题目\1\Flash_KL36_20201030\Debug/srcc/flash.c:87
        if(1 == flash_cmd_launch())  //若执行命令出现错误
    859e:	f7ff ffb7 	bl	8510 <flash_cmd_launch>
    85a2:	2801      	cmp	r0, #1
    85a4:	d001      	beq.n	85aa <flash_erase+0x56>
D:\Users\lihaifeng\Desktop\嵌入式\实验考核题目\1\Flash_KL36_20201030\Debug/srcc/flash.c:91
    return 0;  //成功返回
    85a6:	2000      	movs	r0, #0
    85a8:	e7e9      	b.n	857e <flash_erase+0x2a>
D:\Users\lihaifeng\Desktop\嵌入式\实验考核题目\1\Flash_KL36_20201030\Debug/srcc/flash.c:88
            return 2;   //解锁命令错误
    85aa:	3001      	adds	r0, #1
    85ac:	e7e7      	b.n	857e <flash_erase+0x2a>
D:\Users\lihaifeng\Desktop\嵌入式\实验考核题目\1\Flash_KL36_20201030\Debug/srcc/flash.c:69
        return 1;     //擦除命令错误
    85ae:	2001      	movs	r0, #1
    85b0:	e7e5      	b.n	857e <flash_erase+0x2a>
    85b2:	46c0      	nop			; (mov r8, r8)
    85b4:	40020000 	.word	0x40020000
    85b8:	000003ff 	.word	0x000003ff

000085bc <flash_write>:
flash_write():
D:\Users\lihaifeng\Desktop\嵌入式\实验考核题目\1\Flash_KL36_20201030\Debug/srcc/flash.c:103
{
    85bc:	b5f8      	push	{r3, r4, r5, r6, r7, lr}
    85be:	0017      	movs	r7, r2
    85c0:	001c      	movs	r4, r3
D:\Users\lihaifeng\Desktop\嵌入式\实验考核题目\1\Flash_KL36_20201030\Debug/srcc/flash.c:112
    if(offset%4 != 0)
    85c2:	078b      	lsls	r3, r1, #30
    85c4:	d122      	bne.n	860c <flash_write+0x50>
D:\Users\lihaifeng\Desktop\嵌入式\实验考核题目\1\Flash_KL36_20201030\Debug/srcc/flash.c:116
    FTFA_FCCOB0 = PGM4;
    85c6:	4b13      	ldr	r3, [pc, #76]	; (8614 <flash_write+0x58>)
    85c8:	2206      	movs	r2, #6
    85ca:	71da      	strb	r2, [r3, #7]
D:\Users\lihaifeng\Desktop\嵌入式\实验考核题目\1\Flash_KL36_20201030\Debug/srcc/flash.c:117
    destaddr = (uint32_t)(sect*(1<<10) + offset);//计算地址
    85cc:	0280      	lsls	r0, r0, #10
D:\Users\lihaifeng\Desktop\嵌入式\实验考核题目\1\Flash_KL36_20201030\Debug/srcc/flash.c:118
    dest.word = destaddr;
    85ce:	180d      	adds	r5, r1, r0
D:\Users\lihaifeng\Desktop\嵌入式\实验考核题目\1\Flash_KL36_20201030\Debug/srcc/flash.c:119
    for(size=0; size<N; size+=4, dest.word+=4, buf+=4)
    85d0:	2600      	movs	r6, #0
D:\Users\lihaifeng\Desktop\嵌入式\实验考核题目\1\Flash_KL36_20201030\Debug/srcc/flash.c:119 (discriminator 1)
    85d2:	42b7      	cmp	r7, r6
    85d4:	d918      	bls.n	8608 <flash_write+0x4c>
D:\Users\lihaifeng\Desktop\嵌入式\实验考核题目\1\Flash_KL36_20201030\Debug/srcc/flash.c:122
        FTFA_FCCOB1 = dest.byte[2];
    85d6:	022a      	lsls	r2, r5, #8
    85d8:	0e12      	lsrs	r2, r2, #24
    85da:	4b0e      	ldr	r3, [pc, #56]	; (8614 <flash_write+0x58>)
    85dc:	719a      	strb	r2, [r3, #6]
D:\Users\lihaifeng\Desktop\嵌入式\实验考核题目\1\Flash_KL36_20201030\Debug/srcc/flash.c:123
        FTFA_FCCOB2 = dest.byte[1];
    85de:	042a      	lsls	r2, r5, #16
    85e0:	0e12      	lsrs	r2, r2, #24
    85e2:	715a      	strb	r2, [r3, #5]
D:\Users\lihaifeng\Desktop\嵌入式\实验考核题目\1\Flash_KL36_20201030\Debug/srcc/flash.c:124
        FTFA_FCCOB3 = dest.byte[0];
    85e4:	b2ea      	uxtb	r2, r5
    85e6:	711a      	strb	r2, [r3, #4]
D:\Users\lihaifeng\Desktop\嵌入式\实验考核题目\1\Flash_KL36_20201030\Debug/srcc/flash.c:127
        FTFA_FCCOB4 = buf[3];//大端寻址
    85e8:	78e2      	ldrb	r2, [r4, #3]
    85ea:	72da      	strb	r2, [r3, #11]
D:\Users\lihaifeng\Desktop\嵌入式\实验考核题目\1\Flash_KL36_20201030\Debug/srcc/flash.c:128
        FTFA_FCCOB5 = buf[2];
    85ec:	78a2      	ldrb	r2, [r4, #2]
    85ee:	729a      	strb	r2, [r3, #10]
D:\Users\lihaifeng\Desktop\嵌入式\实验考核题目\1\Flash_KL36_20201030\Debug/srcc/flash.c:129
        FTFA_FCCOB6 = buf[1];
    85f0:	7862      	ldrb	r2, [r4, #1]
    85f2:	725a      	strb	r2, [r3, #9]
D:\Users\lihaifeng\Desktop\嵌入式\实验考核题目\1\Flash_KL36_20201030\Debug/srcc/flash.c:130
        FTFA_FCCOB7 = buf[0];
    85f4:	7822      	ldrb	r2, [r4, #0]
    85f6:	721a      	strb	r2, [r3, #8]
D:\Users\lihaifeng\Desktop\嵌入式\实验考核题目\1\Flash_KL36_20201030\Debug/srcc/flash.c:132
        if(1 == flash_cmd_launch()) 
    85f8:	f7ff ff8a 	bl	8510 <flash_cmd_launch>
    85fc:	2801      	cmp	r0, #1
    85fe:	d007      	beq.n	8610 <flash_write+0x54>
D:\Users\lihaifeng\Desktop\嵌入式\实验考核题目\1\Flash_KL36_20201030\Debug/srcc/flash.c:119 (discriminator 2)
    for(size=0; size<N; size+=4, dest.word+=4, buf+=4)
    8600:	3604      	adds	r6, #4
    8602:	3504      	adds	r5, #4
    8604:	3404      	adds	r4, #4
    8606:	e7e4      	b.n	85d2 <flash_write+0x16>
D:\Users\lihaifeng\Desktop\嵌入式\实验考核题目\1\Flash_KL36_20201030\Debug/srcc/flash.c:136
    return 0;  //成功执行
    8608:	2000      	movs	r0, #0
    860a:	e000      	b.n	860e <flash_write+0x52>
D:\Users\lihaifeng\Desktop\嵌入式\实验考核题目\1\Flash_KL36_20201030\Debug/srcc/flash.c:113
        return 1;   //参数设定错误，偏移量未对齐（4字节对齐）
    860c:	2001      	movs	r0, #1
D:\Users\lihaifeng\Desktop\嵌入式\实验考核题目\1\Flash_KL36_20201030\Debug/srcc/flash.c:137
}
    860e:	bdf8      	pop	{r3, r4, r5, r6, r7, pc}
D:\Users\lihaifeng\Desktop\嵌入式\实验考核题目\1\Flash_KL36_20201030\Debug/srcc/flash.c:133
            return 2;  //写入命令错误
    8610:	2002      	movs	r0, #2
    8612:	e7fc      	b.n	860e <flash_write+0x52>
    8614:	40020000 	.word	0x40020000

00008618 <flash_write_physical>:
flash_write_physical():
D:\Users\lihaifeng\Desktop\嵌入式\实验考核题目\1\Flash_KL36_20201030\Debug/srcc/flash.c:147
{
    8618:	b5f8      	push	{r3, r4, r5, r6, r7, lr}
    861a:	000f      	movs	r7, r1
    861c:	0014      	movs	r4, r2
D:\Users\lihaifeng\Desktop\嵌入式\实验考核题目\1\Flash_KL36_20201030\Debug/srcc/flash.c:156
    FTFA_FCCOB0 = PGM4;
    861e:	4b12      	ldr	r3, [pc, #72]	; (8668 <flash_write_physical+0x50>)
    8620:	2206      	movs	r2, #6
    8622:	71da      	strb	r2, [r3, #7]
D:\Users\lihaifeng\Desktop\嵌入式\实验考核题目\1\Flash_KL36_20201030\Debug/srcc/flash.c:157
    dest.word = destaddr;
    8624:	0005      	movs	r5, r0
D:\Users\lihaifeng\Desktop\嵌入式\实验考核题目\1\Flash_KL36_20201030\Debug/srcc/flash.c:158
    for(size=0; size<N; size+=4, dest.word+=4, buf+=4)
    8626:	2600      	movs	r6, #0
D:\Users\lihaifeng\Desktop\嵌入式\实验考核题目\1\Flash_KL36_20201030\Debug/srcc/flash.c:158 (discriminator 1)
    8628:	42b7      	cmp	r7, r6
    862a:	d918      	bls.n	865e <flash_write_physical+0x46>
D:\Users\lihaifeng\Desktop\嵌入式\实验考核题目\1\Flash_KL36_20201030\Debug/srcc/flash.c:161
        FTFA_FCCOB1 = dest.byte[2];
    862c:	022a      	lsls	r2, r5, #8
    862e:	0e12      	lsrs	r2, r2, #24
    8630:	4b0d      	ldr	r3, [pc, #52]	; (8668 <flash_write_physical+0x50>)
    8632:	719a      	strb	r2, [r3, #6]
D:\Users\lihaifeng\Desktop\嵌入式\实验考核题目\1\Flash_KL36_20201030\Debug/srcc/flash.c:162
        FTFA_FCCOB2 = dest.byte[1];
    8634:	042a      	lsls	r2, r5, #16
    8636:	0e12      	lsrs	r2, r2, #24
    8638:	715a      	strb	r2, [r3, #5]
D:\Users\lihaifeng\Desktop\嵌入式\实验考核题目\1\Flash_KL36_20201030\Debug/srcc/flash.c:163
        FTFA_FCCOB3 = dest.byte[0];
    863a:	b2ea      	uxtb	r2, r5
    863c:	711a      	strb	r2, [r3, #4]
D:\Users\lihaifeng\Desktop\嵌入式\实验考核题目\1\Flash_KL36_20201030\Debug/srcc/flash.c:166
        FTFA_FCCOB4 = buf[3];//大端寻址
    863e:	78e2      	ldrb	r2, [r4, #3]
    8640:	72da      	strb	r2, [r3, #11]
D:\Users\lihaifeng\Desktop\嵌入式\实验考核题目\1\Flash_KL36_20201030\Debug/srcc/flash.c:167
        FTFA_FCCOB5 = buf[2];
    8642:	78a2      	ldrb	r2, [r4, #2]
    8644:	729a      	strb	r2, [r3, #10]
D:\Users\lihaifeng\Desktop\嵌入式\实验考核题目\1\Flash_KL36_20201030\Debug/srcc/flash.c:168
        FTFA_FCCOB6 = buf[1];
    8646:	7862      	ldrb	r2, [r4, #1]
    8648:	725a      	strb	r2, [r3, #9]
D:\Users\lihaifeng\Desktop\嵌入式\实验考核题目\1\Flash_KL36_20201030\Debug/srcc/flash.c:169
        FTFA_FCCOB7 = buf[0];
    864a:	7822      	ldrb	r2, [r4, #0]
    864c:	721a      	strb	r2, [r3, #8]
D:\Users\lihaifeng\Desktop\嵌入式\实验考核题目\1\Flash_KL36_20201030\Debug/srcc/flash.c:171
        if(1 == flash_cmd_launch())
    864e:	f7ff ff5f 	bl	8510 <flash_cmd_launch>
    8652:	2801      	cmp	r0, #1
    8654:	d005      	beq.n	8662 <flash_write_physical+0x4a>
D:\Users\lihaifeng\Desktop\嵌入式\实验考核题目\1\Flash_KL36_20201030\Debug/srcc/flash.c:158 (discriminator 2)
    for(size=0; size<N; size+=4, dest.word+=4, buf+=4)
    8656:	3604      	adds	r6, #4
    8658:	3504      	adds	r5, #4
    865a:	3404      	adds	r4, #4
    865c:	e7e4      	b.n	8628 <flash_write_physical+0x10>
D:\Users\lihaifeng\Desktop\嵌入式\实验考核题目\1\Flash_KL36_20201030\Debug/srcc/flash.c:175
    return 0;  //成功执行
    865e:	2000      	movs	r0, #0
D:\Users\lihaifeng\Desktop\嵌入式\实验考核题目\1\Flash_KL36_20201030\Debug/srcc/flash.c:176
}
    8660:	bdf8      	pop	{r3, r4, r5, r6, r7, pc}
D:\Users\lihaifeng\Desktop\嵌入式\实验考核题目\1\Flash_KL36_20201030\Debug/srcc/flash.c:172
            return 2;  //写入命令错误
    8662:	2002      	movs	r0, #2
    8664:	e7fc      	b.n	8660 <flash_write_physical+0x48>
    8666:	46c0      	nop			; (mov r8, r8)
    8668:	40020000 	.word	0x40020000

0000866c <gpio_get_port_pin>:
gpio_get_port_pin():
D:\Users\lihaifeng\Desktop\嵌入式\实验考核题目\1\Flash_KL36_20201030\Debug/srcc/gpio.c:348
//功能概要：将传进参数port_pin进行解析，得出具体端口号与引脚号，分别赋值给port与pin,返回。
//       （例：(PTB_NUM)|(9)解析为PORTB与9，并将其分别赋值给port与pin）。
//=====================================================================
void gpio_get_port_pin(uint16_t port_pin,uint8_t* port,uint8_t* pin)
{
	*port = (port_pin>>8);
    866c:	0a03      	lsrs	r3, r0, #8
    866e:	700b      	strb	r3, [r1, #0]
D:\Users\lihaifeng\Desktop\嵌入式\实验考核题目\1\Flash_KL36_20201030\Debug/srcc/gpio.c:349
	*pin = port_pin;
    8670:	7010      	strb	r0, [r2, #0]
D:\Users\lihaifeng\Desktop\嵌入式\实验考核题目\1\Flash_KL36_20201030\Debug/srcc/gpio.c:350
}
    8672:	4770      	bx	lr

00008674 <gpio_set>:
gpio_set():
D:\Users\lihaifeng\Desktop\嵌入式\实验考核题目\1\Flash_KL36_20201030\Debug/srcc/gpio.c:67
{
    8674:	b530      	push	{r4, r5, lr}
    8676:	b083      	sub	sp, #12
    8678:	000d      	movs	r5, r1
D:\Users\lihaifeng\Desktop\嵌入式\实验考核题目\1\Flash_KL36_20201030\Debug/srcc/gpio.c:72
	gpio_get_port_pin(port_pin,&port,&pin);
    867a:	466b      	mov	r3, sp
    867c:	1ddc      	adds	r4, r3, #7
    867e:	1d9a      	adds	r2, r3, #6
    8680:	0021      	movs	r1, r4
    8682:	f7ff fff3 	bl	866c <gpio_get_port_pin>
D:\Users\lihaifeng\Desktop\嵌入式\实验考核题目\1\Flash_KL36_20201030\Debug/srcc/gpio.c:75
	gpio_ptr = GPIO_ARR[port];
    8686:	7823      	ldrb	r3, [r4, #0]
    8688:	009b      	lsls	r3, r3, #2
    868a:	4a0a      	ldr	r2, [pc, #40]	; (86b4 <gpio_set+0x40>)
    868c:	589b      	ldr	r3, [r3, r2]
D:\Users\lihaifeng\Desktop\嵌入式\实验考核题目\1\Flash_KL36_20201030\Debug/srcc/gpio.c:78
	if(state == 1)
    868e:	2d01      	cmp	r5, #1
    8690:	d008      	beq.n	86a4 <gpio_set+0x30>
D:\Users\lihaifeng\Desktop\嵌入式\实验考核题目\1\Flash_KL36_20201030\Debug/srcc/gpio.c:84
		BCLR(pin,GPIO_PDOR_REG(gpio_ptr));
    8692:	681a      	ldr	r2, [r3, #0]
    8694:	4669      	mov	r1, sp
    8696:	7988      	ldrb	r0, [r1, #6]
    8698:	2101      	movs	r1, #1
    869a:	4081      	lsls	r1, r0
    869c:	438a      	bics	r2, r1
    869e:	601a      	str	r2, [r3, #0]
D:\Users\lihaifeng\Desktop\嵌入式\实验考核题目\1\Flash_KL36_20201030\Debug/srcc/gpio.c:86
}
    86a0:	b003      	add	sp, #12
    86a2:	bd30      	pop	{r4, r5, pc}
D:\Users\lihaifeng\Desktop\嵌入式\实验考核题目\1\Flash_KL36_20201030\Debug/srcc/gpio.c:80
		BSET(pin,GPIO_PDOR_REG(gpio_ptr));
    86a4:	681a      	ldr	r2, [r3, #0]
    86a6:	4669      	mov	r1, sp
    86a8:	7988      	ldrb	r0, [r1, #6]
    86aa:	2101      	movs	r1, #1
    86ac:	4081      	lsls	r1, r0
    86ae:	430a      	orrs	r2, r1
    86b0:	601a      	str	r2, [r3, #0]
    86b2:	e7f5      	b.n	86a0 <gpio_set+0x2c>
    86b4:	000098b8 	.word	0x000098b8

000086b8 <gpio_init>:
gpio_init():
D:\Users\lihaifeng\Desktop\嵌入式\实验考核题目\1\Flash_KL36_20201030\Debug/srcc/gpio.c:31
{
    86b8:	b5f0      	push	{r4, r5, r6, r7, lr}
    86ba:	b085      	sub	sp, #20
    86bc:	0004      	movs	r4, r0
    86be:	000f      	movs	r7, r1
    86c0:	9201      	str	r2, [sp, #4]
D:\Users\lihaifeng\Desktop\嵌入式\实验考核题目\1\Flash_KL36_20201030\Debug/srcc/gpio.c:37
	gpio_get_port_pin(port_pin,&port,&pin);
    86c2:	ab02      	add	r3, sp, #8
    86c4:	1d9e      	adds	r6, r3, #6
    86c6:	1ddd      	adds	r5, r3, #7
    86c8:	0032      	movs	r2, r6
    86ca:	0029      	movs	r1, r5
    86cc:	f7ff ffce 	bl	866c <gpio_get_port_pin>
D:\Users\lihaifeng\Desktop\嵌入式\实验考核题目\1\Flash_KL36_20201030\Debug/srcc/gpio.c:39
	port_ptr = PORT_ARR[port];        //获得PORT模块相应口基地址
    86d0:	782a      	ldrb	r2, [r5, #0]
    86d2:	0092      	lsls	r2, r2, #2
    86d4:	4b13      	ldr	r3, [pc, #76]	; (8724 <gpio_init+0x6c>)
    86d6:	58d3      	ldr	r3, [r2, r3]
D:\Users\lihaifeng\Desktop\嵌入式\实验考核题目\1\Flash_KL36_20201030\Debug/srcc/gpio.c:40
	gpio_ptr = GPIO_ARR[port];        //获得GPIO模块相应口基地址
    86d8:	4913      	ldr	r1, [pc, #76]	; (8728 <gpio_init+0x70>)
    86da:	5850      	ldr	r0, [r2, r1]
D:\Users\lihaifeng\Desktop\嵌入式\实验考核题目\1\Flash_KL36_20201030\Debug/srcc/gpio.c:43
	PORT_PCR_REG(port_ptr,pin) &= ~PORT_PCR_MUX_MASK;//置D10-D8=000
    86dc:	7832      	ldrb	r2, [r6, #0]
    86de:	0092      	lsls	r2, r2, #2
    86e0:	58d1      	ldr	r1, [r2, r3]
    86e2:	4d12      	ldr	r5, [pc, #72]	; (872c <gpio_init+0x74>)
    86e4:	4029      	ands	r1, r5
    86e6:	50d1      	str	r1, [r2, r3]
D:\Users\lihaifeng\Desktop\嵌入式\实验考核题目\1\Flash_KL36_20201030\Debug/srcc/gpio.c:44
	PORT_PCR_REG(port_ptr,pin) |= PORT_PCR_MUX(1);//置D10-D8=001
    86e8:	7832      	ldrb	r2, [r6, #0]
    86ea:	0092      	lsls	r2, r2, #2
    86ec:	58d6      	ldr	r6, [r2, r3]
    86ee:	2180      	movs	r1, #128	; 0x80
    86f0:	0049      	lsls	r1, r1, #1
    86f2:	4331      	orrs	r1, r6
    86f4:	50d1      	str	r1, [r2, r3]
D:\Users\lihaifeng\Desktop\嵌入式\实验考核题目\1\Flash_KL36_20201030\Debug/srcc/gpio.c:47
	if(dir == 1)  //输出引脚
    86f6:	2f01      	cmp	r7, #1
    86f8:	d008      	beq.n	870c <gpio_init+0x54>
D:\Users\lihaifeng\Desktop\嵌入式\实验考核题目\1\Flash_KL36_20201030\Debug/srcc/gpio.c:56
		BCLR(pin,GPIO_PDDR_REG(gpio_ptr));//数据方向寄存器的pin位=0，定义为输入
    86fa:	6943      	ldr	r3, [r0, #20]
    86fc:	aa02      	add	r2, sp, #8
    86fe:	7991      	ldrb	r1, [r2, #6]
    8700:	2201      	movs	r2, #1
    8702:	408a      	lsls	r2, r1
    8704:	4393      	bics	r3, r2
    8706:	6143      	str	r3, [r0, #20]
D:\Users\lihaifeng\Desktop\嵌入式\实验考核题目\1\Flash_KL36_20201030\Debug/srcc/gpio.c:58
}
    8708:	b005      	add	sp, #20
    870a:	bdf0      	pop	{r4, r5, r6, r7, pc}
D:\Users\lihaifeng\Desktop\嵌入式\实验考核题目\1\Flash_KL36_20201030\Debug/srcc/gpio.c:50
		BSET(pin,GPIO_PDDR_REG(gpio_ptr));
    870c:	6943      	ldr	r3, [r0, #20]
    870e:	aa02      	add	r2, sp, #8
    8710:	7991      	ldrb	r1, [r2, #6]
    8712:	2201      	movs	r2, #1
    8714:	408a      	lsls	r2, r1
    8716:	4313      	orrs	r3, r2
    8718:	6143      	str	r3, [r0, #20]
D:\Users\lihaifeng\Desktop\嵌入式\实验考核题目\1\Flash_KL36_20201030\Debug/srcc/gpio.c:52
		gpio_set(port_pin,state);   
    871a:	9901      	ldr	r1, [sp, #4]
    871c:	0020      	movs	r0, r4
    871e:	f7ff ffa9 	bl	8674 <gpio_set>
    8722:	e7f1      	b.n	8708 <gpio_init+0x50>
    8724:	000098cc 	.word	0x000098cc
    8728:	000098b8 	.word	0x000098b8
    872c:	fffff8ff 	.word	0xfffff8ff

00008730 <wdog_stop>:
wdog_stop():
D:\Users\lihaifeng\Desktop\嵌入式\实验考核题目\1\Flash_KL36_20201030\Debug/srcc/wdog.c:40
//参数说明：无
//函数返回：无
//=========================================================================
void wdog_stop()
{
    SIM_COPC &= ~SIM_COPC_COPT_MASK;
    8730:	4903      	ldr	r1, [pc, #12]	; (8740 <wdog_stop+0x10>)
    8732:	2288      	movs	r2, #136	; 0x88
    8734:	0152      	lsls	r2, r2, #5
    8736:	588b      	ldr	r3, [r1, r2]
    8738:	200c      	movs	r0, #12
    873a:	4383      	bics	r3, r0
    873c:	508b      	str	r3, [r1, r2]
D:\Users\lihaifeng\Desktop\嵌入式\实验考核题目\1\Flash_KL36_20201030\Debug/srcc/wdog.c:41
}
    873e:	4770      	bx	lr
    8740:	40047000 	.word	0x40047000

00008744 <wdog_feed>:
wdog_feed():
D:\Users\lihaifeng\Desktop\嵌入式\实验考核题目\1\Flash_KL36_20201030\Debug/srcc/wdog.c:51
//函数返回：无
//复位序列：先写0x55，后写0xAA
//=========================================================================
void wdog_feed(void)
{
    SIM_SRVCOP = 0x55;
    8744:	4a03      	ldr	r2, [pc, #12]	; (8754 <wdog_feed+0x10>)
    8746:	4b04      	ldr	r3, [pc, #16]	; (8758 <wdog_feed+0x14>)
    8748:	2155      	movs	r1, #85	; 0x55
    874a:	50d1      	str	r1, [r2, r3]
D:\Users\lihaifeng\Desktop\嵌入式\实验考核题目\1\Flash_KL36_20201030\Debug/srcc/wdog.c:52
    SIM_SRVCOP = 0xAA;
    874c:	3155      	adds	r1, #85	; 0x55
    874e:	50d1      	str	r1, [r2, r3]
D:\Users\lihaifeng\Desktop\嵌入式\实验考核题目\1\Flash_KL36_20201030\Debug/srcc/wdog.c:53
}
    8750:	4770      	bx	lr
    8752:	46c0      	nop			; (mov r8, r8)
    8754:	40047000 	.word	0x40047000
    8758:	00001104 	.word	0x00001104

0000875c <Vectors_Init>:
Vectors_Init():
D:\Users\lihaifeng\Desktop\嵌入式\实验考核题目\1\Flash_KL36_20201030\Debug/srcc/gec.c:15
//参数说明：无
//功能概要：User对BIOS中断向量表的部分继承,构件库函数指针初始化
//修改信息：WYH，20200805，规范
//======================================================================
void  Vectors_Init()
{
    875c:	b580      	push	{r7, lr}
    875e:	4f1d      	ldr	r7, [pc, #116]	; (87d4 <Vectors_Init+0x78>)
    8760:	44bd      	add	sp, r7
D:\Users\lihaifeng\Desktop\嵌入式\实验考核题目\1\Flash_KL36_20201030\Debug/srcc/gec.c:19
    //有用户程序，编译本段代码
    #if (GEC_USER_SECTOR_START!=0)   
    //（1）若Flash倒数2扇区的前24字节为空，则写入设备序列号及软件版本号初值
    if(flash_isempty(MCU_SECTOR_NUM-1,24))
    8762:	2118      	movs	r1, #24
    8764:	203f      	movs	r0, #63	; 0x3f
    8766:	f7ff fec4 	bl	84f2 <flash_isempty>
    876a:	2800      	cmp	r0, #0
    876c:	d12b      	bne.n	87c6 <Vectors_Init+0x6a>
D:\Users\lihaifeng\Desktop\嵌入式\实验考核题目\1\Flash_KL36_20201030\Debug/srcc/gec.c:28
    }
    //（2）继承BIOS的串口中断              
    void ** bios=MCU_FLASH_ADDR_START;   //向量表起始地址  
    uint32_t user[MCU_SECTORSIZE/4];     //向量表变量数组
    //读取USER中断向量表各中断处理程序地址赋给user数组
    flash_read_physical((uint8_t *)user,GEC_USER_SECTOR_START*
    876e:	2280      	movs	r2, #128	; 0x80
    8770:	21d0      	movs	r1, #208	; 0xd0
    8772:	00d2      	lsls	r2, r2, #3
    8774:	01c9      	lsls	r1, r1, #7
    8776:	a802      	add	r0, sp, #8
    8778:	f7ff feb7 	bl	84ea <flash_read_physical>
D:\Users\lihaifeng\Desktop\嵌入式\实验考核题目\1\Flash_KL36_20201030\Debug/srcc/gec.c:32
    MCU_SECTORSIZE+MCU_FLASH_ADDR_START,MCU_SECTORSIZE);
    //判断USER中串口更新中断是否为BIOS对应中断地址。若是，则不作操作；否则修改
    //为BIOS对应中断地址
    if(user[BIOS_UART_UPDATE_IRQn] != (uint32_t)bios[BIOS_UART_UPDATE_IRQn])
    877c:	2378      	movs	r3, #120	; 0x78
    877e:	681b      	ldr	r3, [r3, #0]
    8780:	9a20      	ldr	r2, [sp, #128]	; 0x80
    8782:	429a      	cmp	r2, r3
    8784:	d010      	beq.n	87a8 <Vectors_Init+0x4c>
D:\Users\lihaifeng\Desktop\嵌入式\实验考核题目\1\Flash_KL36_20201030\Debug/srcc/gec.c:35
    {
        //改变User中断向量表中BIOS_UART中断向量
        flash_erase(GEC_USER_SECTOR_START);
    8786:	201a      	movs	r0, #26
    8788:	f7ff fee4 	bl	8554 <flash_erase>
D:\Users\lihaifeng\Desktop\嵌入式\实验考核题目\1\Flash_KL36_20201030\Debug/srcc/gec.c:37
        //改USER中断向量表的BIOS程序写入串口的中断处理程序地址
        user[2]=(uint32_t)bios[2];     //【20200903】
    878c:	2308      	movs	r3, #8
    878e:	681b      	ldr	r3, [r3, #0]
    8790:	9304      	str	r3, [sp, #16]
D:\Users\lihaifeng\Desktop\嵌入式\实验考核题目\1\Flash_KL36_20201030\Debug/srcc/gec.c:38
        user[BIOS_UART_UPDATE_IRQn]=(uint32_t)bios[BIOS_UART_UPDATE_IRQn];
    8792:	2378      	movs	r3, #120	; 0x78
    8794:	681b      	ldr	r3, [r3, #0]
    8796:	9301      	str	r3, [sp, #4]
    8798:	9320      	str	r3, [sp, #128]	; 0x80
D:\Users\lihaifeng\Desktop\嵌入式\实验考核题目\1\Flash_KL36_20201030\Debug/srcc/gec.c:39
        flash_write_physical(GEC_USER_SECTOR_START*MCU_SECTORSIZE+
    879a:	2180      	movs	r1, #128	; 0x80
    879c:	20d0      	movs	r0, #208	; 0xd0
    879e:	aa02      	add	r2, sp, #8
    87a0:	00c9      	lsls	r1, r1, #3
    87a2:	01c0      	lsls	r0, r0, #7
    87a4:	f7ff ff38 	bl	8618 <flash_write_physical>
D:\Users\lihaifeng\Desktop\嵌入式\实验考核题目\1\Flash_KL36_20201030\Debug/srcc/gec.c:44
        MCU_FLASH_ADDR_START,MCU_SECTORSIZE,(uint8_t *)user);
    }
    
    //（3）中断向量表指针重定向到USER程序的中断向量表
    SCB->VTOR = (uint32_t)(GEC_USER_SECTOR_START*MCU_SECTORSIZE+
    87a8:	4b0b      	ldr	r3, [pc, #44]	; (87d8 <Vectors_Init+0x7c>)
    87aa:	22d0      	movs	r2, #208	; 0xd0
    87ac:	01d2      	lsls	r2, r2, #7
    87ae:	609a      	str	r2, [r3, #8]
D:\Users\lihaifeng\Desktop\嵌入式\实验考核题目\1\Flash_KL36_20201030\Debug/srcc/gec.c:47
    MCU_FLASH_ADDR_START);  
    //（4）给component_fun赋值，SYSTEM_FUNCTION函数用
    component_fun=(void **)(MCU_FLASH_ADDR_START+
    87b0:	4b0a      	ldr	r3, [pc, #40]	; (87dc <Vectors_Init+0x80>)
    87b2:	22e0      	movs	r2, #224	; 0xe0
    87b4:	0192      	lsls	r2, r2, #6
    87b6:	601a      	str	r2, [r3, #0]
D:\Users\lihaifeng\Desktop\嵌入式\实验考核题目\1\Flash_KL36_20201030\Debug/srcc/gec.c:50
    GEC_COMPONENT_LST_START*MCU_SECTORSIZE); 
    //（5）printf提示             
    printf("  【User提示】：将进入User的main()执行...\r\n");
    87b8:	4809      	ldr	r0, [pc, #36]	; (87e0 <Vectors_Init+0x84>)
    87ba:	f000 ff0f 	bl	95dc <myprintf>
D:\Users\lihaifeng\Desktop\嵌入式\实验考核题目\1\Flash_KL36_20201030\Debug/srcc/gec.c:53
    
    #endif
}
    87be:	2381      	movs	r3, #129	; 0x81
    87c0:	00db      	lsls	r3, r3, #3
    87c2:	449d      	add	sp, r3
    87c4:	bd80      	pop	{r7, pc}
D:\Users\lihaifeng\Desktop\嵌入式\实验考核题目\1\Flash_KL36_20201030\Debug/srcc/gec.c:21
        flash_write_physical((MCU_SECTOR_NUM-1)*MCU_SECTORSIZE+
    87c6:	20fc      	movs	r0, #252	; 0xfc
    87c8:	4a06      	ldr	r2, [pc, #24]	; (87e4 <Vectors_Init+0x88>)
    87ca:	2118      	movs	r1, #24
    87cc:	0200      	lsls	r0, r0, #8
    87ce:	f7ff ff23 	bl	8618 <flash_write_physical>
    87d2:	e7cc      	b.n	876e <Vectors_Init+0x12>
    87d4:	fffffbf8 	.word	0xfffffbf8
    87d8:	e000ed00 	.word	0xe000ed00
    87dc:	20000430 	.word	0x20000430
    87e0:	000098fc 	.word	0x000098fc
    87e4:	000098e0 	.word	0x000098e0

000087e8 <uart_is_uartNo>:
uart_is_uartNo():
D:\Users\lihaifeng\Desktop\嵌入式\实验考核题目\1\Flash_KL36_20201030\Debug/srcc/uart.c:539
//参数说明：串口号uartNo  :UART_0、UART_1、UART_2
//功能概要：为程序健壮性而判断uartNo是否在串口数字范围内
//=====================================================================
uint8_t uart_is_uartNo(uint8_t uartNo)
{
    if(uartNo < UART_0 || uartNo > UART_2)
    87e8:	2802      	cmp	r0, #2
    87ea:	d801      	bhi.n	87f0 <uart_is_uartNo+0x8>
D:\Users\lihaifeng\Desktop\嵌入式\实验考核题目\1\Flash_KL36_20201030\Debug/srcc/uart.c:542
        return 0;
    else
        return 1;
    87ec:	2001      	movs	r0, #1
D:\Users\lihaifeng\Desktop\嵌入式\实验考核题目\1\Flash_KL36_20201030\Debug/srcc/uart.c:543
}
    87ee:	4770      	bx	lr
D:\Users\lihaifeng\Desktop\嵌入式\实验考核题目\1\Flash_KL36_20201030\Debug/srcc/uart.c:540
        return 0;
    87f0:	2000      	movs	r0, #0
    87f2:	e7fc      	b.n	87ee <uart_is_uartNo+0x6>

000087f4 <uart_init>:
uart_init():
D:\Users\lihaifeng\Desktop\嵌入式\实验考核题目\1\Flash_KL36_20201030\Debug/srcc/uart.c:24
{
    87f4:	b570      	push	{r4, r5, r6, lr}
    87f6:	0004      	movs	r4, r0
    87f8:	000d      	movs	r5, r1
D:\Users\lihaifeng\Desktop\嵌入式\实验考核题目\1\Flash_KL36_20201030\Debug/srcc/uart.c:32
    if(!uart_is_uartNo(uartNo))
    87fa:	f7ff fff5 	bl	87e8 <uart_is_uartNo>
    87fe:	2800      	cmp	r0, #0
    8800:	d02b      	beq.n	885a <uart_init+0x66>
D:\Users\lihaifeng\Desktop\嵌入式\实验考核题目\1\Flash_KL36_20201030\Debug/srcc/uart.c:38
    if(uartNo==0)
    8802:	2c00      	cmp	r4, #0
    8804:	d02a      	beq.n	885c <uart_init+0x68>
D:\Users\lihaifeng\Desktop\嵌入式\实验考核题目\1\Flash_KL36_20201030\Debug/srcc/uart.c:92
    	switch (uartNo)
    8806:	2c01      	cmp	r4, #1
    8808:	d100      	bne.n	880c <uart_init+0x18>
    880a:	e06d      	b.n	88e8 <uart_init+0xf4>
    880c:	2c02      	cmp	r4, #2
    880e:	d100      	bne.n	8812 <uart_init+0x1e>
    8810:	e077      	b.n	8902 <uart_init+0x10e>
D:\Users\lihaifeng\Desktop\嵌入式\实验考核题目\1\Flash_KL36_20201030\Debug/srcc/uart.c:142
        UART_2h_1_2 = UART_ARR[uartNo-1]; //获得UART1、2模块相应口基地址
    8812:	3c01      	subs	r4, #1
    8814:	00a4      	lsls	r4, r4, #2
    8816:	4b41      	ldr	r3, [pc, #260]	; (891c <uart_init+0x128>)
    8818:	58e4      	ldr	r4, [r4, r3]
D:\Users\lihaifeng\Desktop\嵌入式\实验考核题目\1\Flash_KL36_20201030\Debug/srcc/uart.c:145
        UART_C2_REG(UART_2h_1_2) &= ~(UART_C2_TE_MASK | UART_C2_RE_MASK);
    881a:	78e3      	ldrb	r3, [r4, #3]
    881c:	220c      	movs	r2, #12
    881e:	4393      	bics	r3, r2
    8820:	70e3      	strb	r3, [r4, #3]
D:\Users\lihaifeng\Desktop\嵌入式\实验考核题目\1\Flash_KL36_20201030\Debug/srcc/uart.c:150
        sbr = (uint16_t)((SystemCoreClock/2)/(baud_rate * 16));
    8822:	4b3f      	ldr	r3, [pc, #252]	; (8920 <uart_init+0x12c>)
    8824:	6818      	ldr	r0, [r3, #0]
    8826:	0840      	lsrs	r0, r0, #1
    8828:	0129      	lsls	r1, r5, #4
    882a:	f7fe fa3d 	bl	6ca8 <__udivsi3>
D:\Users\lihaifeng\Desktop\嵌入式\实验考核题目\1\Flash_KL36_20201030\Debug/srcc/uart.c:151
        temp = UART_BDH_REG(UART_2h_1_2) & ~(UART_BDH_SBR(0x1F));
    882e:	7823      	ldrb	r3, [r4, #0]
    8830:	221f      	movs	r2, #31
    8832:	4393      	bics	r3, r2
D:\Users\lihaifeng\Desktop\嵌入式\实验考核题目\1\Flash_KL36_20201030\Debug/srcc/uart.c:152
        UART_BDH_REG(UART_2h_1_2) = temp |  UART_BDH_SBR(((sbr & 0x1F00) >> 8));
    8834:	1202      	asrs	r2, r0, #8
    8836:	211f      	movs	r1, #31
    8838:	400a      	ands	r2, r1
    883a:	4313      	orrs	r3, r2
    883c:	7023      	strb	r3, [r4, #0]
D:\Users\lihaifeng\Desktop\嵌入式\实验考核题目\1\Flash_KL36_20201030\Debug/srcc/uart.c:153
        UART_BDL_REG(UART_2h_1_2) = (uint8_t)(sbr & UART_BDL_SBR_MASK);
    883e:	b2c0      	uxtb	r0, r0
    8840:	7060      	strb	r0, [r4, #1]
D:\Users\lihaifeng\Desktop\嵌入式\实验考核题目\1\Flash_KL36_20201030\Debug/srcc/uart.c:156
        UART_C1_REG(UART_2h_1_2)=0x00;
    8842:	2300      	movs	r3, #0
    8844:	70a3      	strb	r3, [r4, #2]
D:\Users\lihaifeng\Desktop\嵌入式\实验考核题目\1\Flash_KL36_20201030\Debug/srcc/uart.c:157
        UART_C3_REG(UART_2h_1_2)=0x00;
    8846:	71a3      	strb	r3, [r4, #6]
D:\Users\lihaifeng\Desktop\嵌入式\实验考核题目\1\Flash_KL36_20201030\Debug/srcc/uart.c:158
        UART_S2_REG(UART_2h_1_2)=0x00;
    8848:	7163      	strb	r3, [r4, #5]
D:\Users\lihaifeng\Desktop\嵌入式\实验考核题目\1\Flash_KL36_20201030\Debug/srcc/uart.c:160
        UART_C2_REG(UART_2h_1_2) &= ~UART_C2_TIE_MASK;
    884a:	78e3      	ldrb	r3, [r4, #3]
    884c:	227f      	movs	r2, #127	; 0x7f
    884e:	4013      	ands	r3, r2
    8850:	70e3      	strb	r3, [r4, #3]
D:\Users\lihaifeng\Desktop\嵌入式\实验考核题目\1\Flash_KL36_20201030\Debug/srcc/uart.c:162
        UART_C2_REG(UART_2h_1_2)|= (UART_C2_TE_MASK | UART_C2_RE_MASK);
    8852:	78e3      	ldrb	r3, [r4, #3]
    8854:	220c      	movs	r2, #12
    8856:	4313      	orrs	r3, r2
    8858:	70e3      	strb	r3, [r4, #3]
D:\Users\lihaifeng\Desktop\嵌入式\实验考核题目\1\Flash_KL36_20201030\Debug/srcc/uart.c:164
}
    885a:	bd70      	pop	{r4, r5, r6, pc}
D:\Users\lihaifeng\Desktop\嵌入式\实验考核题目\1\Flash_KL36_20201030\Debug/srcc/uart.c:41
        SIM_SOPT2 |= SIM_SOPT2_UART0SRC(0x1);
    885c:	4b31      	ldr	r3, [pc, #196]	; (8924 <uart_init+0x130>)
    885e:	4a32      	ldr	r2, [pc, #200]	; (8928 <uart_init+0x134>)
    8860:	5898      	ldr	r0, [r3, r2]
    8862:	2180      	movs	r1, #128	; 0x80
    8864:	04c9      	lsls	r1, r1, #19
    8866:	4301      	orrs	r1, r0
    8868:	5099      	str	r1, [r3, r2]
D:\Users\lihaifeng\Desktop\嵌入式\实验考核题目\1\Flash_KL36_20201030\Debug/srcc/uart.c:42
        SIM_SOPT2 &= ~SIM_SOPT2_PLLFLLSEL_MASK;
    886a:	5899      	ldr	r1, [r3, r2]
    886c:	482f      	ldr	r0, [pc, #188]	; (892c <uart_init+0x138>)
    886e:	4001      	ands	r1, r0
    8870:	5099      	str	r1, [r3, r2]
D:\Users\lihaifeng\Desktop\嵌入式\实验考核题目\1\Flash_KL36_20201030\Debug/srcc/uart.c:48
            PORTE_PCR20 |= PORT_PCR_MUX(0x4);    //使能UART0_TXD
    8872:	492f      	ldr	r1, [pc, #188]	; (8930 <uart_init+0x13c>)
    8874:	6d08      	ldr	r0, [r1, #80]	; 0x50
    8876:	2280      	movs	r2, #128	; 0x80
    8878:	00d2      	lsls	r2, r2, #3
    887a:	4310      	orrs	r0, r2
    887c:	6508      	str	r0, [r1, #80]	; 0x50
D:\Users\lihaifeng\Desktop\嵌入式\实验考核题目\1\Flash_KL36_20201030\Debug/srcc/uart.c:49
            PORTE_PCR21 |= PORT_PCR_MUX(0x4);    //使能UART0_RXD
    887e:	6d48      	ldr	r0, [r1, #84]	; 0x54
    8880:	4310      	orrs	r0, r2
    8882:	6548      	str	r0, [r1, #84]	; 0x54
D:\Users\lihaifeng\Desktop\嵌入式\实验考核题目\1\Flash_KL36_20201030\Debug/srcc/uart.c:66
        SIM_SCGC4 |= SIM_SCGC4_UART0_MASK;    //启动串口0时钟
    8884:	492b      	ldr	r1, [pc, #172]	; (8934 <uart_init+0x140>)
    8886:	5858      	ldr	r0, [r3, r1]
    8888:	4302      	orrs	r2, r0
    888a:	505a      	str	r2, [r3, r1]
D:\Users\lihaifeng\Desktop\嵌入式\实验考核题目\1\Flash_KL36_20201030\Debug/srcc/uart.c:69
        UART0_C2_REG(UART_2h_0) &= ~(UART0_C2_TE_MASK | UART0_C2_RE_MASK);
    888c:	4c2a      	ldr	r4, [pc, #168]	; (8938 <uart_init+0x144>)
    888e:	78e3      	ldrb	r3, [r4, #3]
    8890:	220c      	movs	r2, #12
    8892:	4393      	bics	r3, r2
    8894:	70e3      	strb	r3, [r4, #3]
D:\Users\lihaifeng\Desktop\嵌入式\实验考核题目\1\Flash_KL36_20201030\Debug/srcc/uart.c:72
        sbr = (uint16_t)((SystemCoreClock)/(baud_rate * 16));
    8896:	0129      	lsls	r1, r5, #4
    8898:	4b21      	ldr	r3, [pc, #132]	; (8920 <uart_init+0x12c>)
    889a:	6818      	ldr	r0, [r3, #0]
    889c:	f7fe fa04 	bl	6ca8 <__udivsi3>
D:\Users\lihaifeng\Desktop\嵌入式\实验考核题目\1\Flash_KL36_20201030\Debug/srcc/uart.c:73
        temp = UART0_BDH_REG(UART_2h_0) & ~(UART0_BDH_SBR(0x1F));
    88a0:	7823      	ldrb	r3, [r4, #0]
    88a2:	221f      	movs	r2, #31
    88a4:	4393      	bics	r3, r2
D:\Users\lihaifeng\Desktop\嵌入式\实验考核题目\1\Flash_KL36_20201030\Debug/srcc/uart.c:74
        UART0_BDH_REG(UART_2h_0) = temp | UART0_BDH_SBR(((sbr & 0x1F00) >> 8));
    88a6:	1202      	asrs	r2, r0, #8
    88a8:	211f      	movs	r1, #31
    88aa:	400a      	ands	r2, r1
    88ac:	4313      	orrs	r3, r2
    88ae:	7023      	strb	r3, [r4, #0]
D:\Users\lihaifeng\Desktop\嵌入式\实验考核题目\1\Flash_KL36_20201030\Debug/srcc/uart.c:75
        UART0_BDL_REG(UART_2h_0) = (uint8_t)(sbr & UART0_BDL_SBR_MASK);
    88b0:	b2c0      	uxtb	r0, r0
    88b2:	7060      	strb	r0, [r4, #1]
D:\Users\lihaifeng\Desktop\嵌入式\实验考核题目\1\Flash_KL36_20201030\Debug/srcc/uart.c:78
        UART0_C4_REG(UART_2h_0) = 0x0F;
    88b4:	230f      	movs	r3, #15
    88b6:	72a3      	strb	r3, [r4, #10]
D:\Users\lihaifeng\Desktop\嵌入式\实验考核题目\1\Flash_KL36_20201030\Debug/srcc/uart.c:79
        UART0_C1_REG(UART_2h_0) = 0x00;
    88b8:	2300      	movs	r3, #0
    88ba:	70a3      	strb	r3, [r4, #2]
D:\Users\lihaifeng\Desktop\嵌入式\实验考核题目\1\Flash_KL36_20201030\Debug/srcc/uart.c:80
        UART0_C3_REG(UART_2h_0) = 0x00;
    88bc:	71a3      	strb	r3, [r4, #6]
D:\Users\lihaifeng\Desktop\嵌入式\实验考核题目\1\Flash_KL36_20201030\Debug/srcc/uart.c:81
        UART0_MA1_REG(UART_2h_0) = 0x00;
    88be:	7223      	strb	r3, [r4, #8]
D:\Users\lihaifeng\Desktop\嵌入式\实验考核题目\1\Flash_KL36_20201030\Debug/srcc/uart.c:82
        UART0_MA2_REG(UART_2h_0) = 0x00;
    88c0:	7263      	strb	r3, [r4, #9]
D:\Users\lihaifeng\Desktop\嵌入式\实验考核题目\1\Flash_KL36_20201030\Debug/srcc/uart.c:83
        UART0_S1_REG(UART_2h_0) |= 0x1F;
    88c2:	7923      	ldrb	r3, [r4, #4]
    88c4:	221f      	movs	r2, #31
    88c6:	4313      	orrs	r3, r2
    88c8:	7123      	strb	r3, [r4, #4]
D:\Users\lihaifeng\Desktop\嵌入式\实验考核题目\1\Flash_KL36_20201030\Debug/srcc/uart.c:84
        UART0_S2_REG(UART_2h_0) |= 0xC0;
    88ca:	7963      	ldrb	r3, [r4, #5]
    88cc:	2240      	movs	r2, #64	; 0x40
    88ce:	4252      	negs	r2, r2
    88d0:	4313      	orrs	r3, r2
    88d2:	b2db      	uxtb	r3, r3
    88d4:	7163      	strb	r3, [r4, #5]
D:\Users\lihaifeng\Desktop\嵌入式\实验考核题目\1\Flash_KL36_20201030\Debug/srcc/uart.c:86
        UART0_C2_REG(UART_2h_0) &= ~UART0_C2_TIE_MASK;
    88d6:	78e3      	ldrb	r3, [r4, #3]
    88d8:	32bf      	adds	r2, #191	; 0xbf
    88da:	4013      	ands	r3, r2
    88dc:	70e3      	strb	r3, [r4, #3]
D:\Users\lihaifeng\Desktop\嵌入式\实验考核题目\1\Flash_KL36_20201030\Debug/srcc/uart.c:88
        UART0_C2_REG(UART_2h_0) |= (UART0_C2_TE_MASK | UART0_C2_RE_MASK);
    88de:	78e3      	ldrb	r3, [r4, #3]
    88e0:	220c      	movs	r2, #12
    88e2:	4313      	orrs	r3, r2
    88e4:	70e3      	strb	r3, [r4, #3]
    88e6:	e7b8      	b.n	885a <uart_init+0x66>
D:\Users\lihaifeng\Desktop\嵌入式\实验考核题目\1\Flash_KL36_20201030\Debug/srcc/uart.c:99
    			PORTE_PCR0 = PORT_PCR_MUX(0x3);    //使能UART1_TXD
    88e8:	4b11      	ldr	r3, [pc, #68]	; (8930 <uart_init+0x13c>)
    88ea:	22c0      	movs	r2, #192	; 0xc0
    88ec:	0092      	lsls	r2, r2, #2
    88ee:	601a      	str	r2, [r3, #0]
D:\Users\lihaifeng\Desktop\嵌入式\实验考核题目\1\Flash_KL36_20201030\Debug/srcc/uart.c:100
    			PORTE_PCR1 = PORT_PCR_MUX(0x3);    //使能UART1_RXD
    88f0:	605a      	str	r2, [r3, #4]
D:\Users\lihaifeng\Desktop\嵌入式\实验考核题目\1\Flash_KL36_20201030\Debug/srcc/uart.c:113
    		SIM_SCGC4 |= SIM_SCGC4_UART1_MASK; //启动串口1时钟
    88f2:	490c      	ldr	r1, [pc, #48]	; (8924 <uart_init+0x130>)
    88f4:	4a0f      	ldr	r2, [pc, #60]	; (8934 <uart_init+0x140>)
    88f6:	5888      	ldr	r0, [r1, r2]
    88f8:	2380      	movs	r3, #128	; 0x80
    88fa:	011b      	lsls	r3, r3, #4
    88fc:	4303      	orrs	r3, r0
    88fe:	508b      	str	r3, [r1, r2]
D:\Users\lihaifeng\Desktop\嵌入式\实验考核题目\1\Flash_KL36_20201030\Debug/srcc/uart.c:114
    		break;
    8900:	e787      	b.n	8812 <uart_init+0x1e>
D:\Users\lihaifeng\Desktop\嵌入式\实验考核题目\1\Flash_KL36_20201030\Debug/srcc/uart.c:120
    				PORTE_PCR16 = PORT_PCR_MUX(0x3); //使能UART2_TXD
    8902:	4b0b      	ldr	r3, [pc, #44]	; (8930 <uart_init+0x13c>)
    8904:	22c0      	movs	r2, #192	; 0xc0
    8906:	0092      	lsls	r2, r2, #2
    8908:	641a      	str	r2, [r3, #64]	; 0x40
D:\Users\lihaifeng\Desktop\嵌入式\实验考核题目\1\Flash_KL36_20201030\Debug/srcc/uart.c:121
    				PORTE_PCR17 = PORT_PCR_MUX(0x3); //使能UART2_RXD
    890a:	645a      	str	r2, [r3, #68]	; 0x44
D:\Users\lihaifeng\Desktop\嵌入式\实验考核题目\1\Flash_KL36_20201030\Debug/srcc/uart.c:137
    			SIM_SCGC4 |= SIM_SCGC4_UART2_MASK;//启动串口2时钟
    890c:	4905      	ldr	r1, [pc, #20]	; (8924 <uart_init+0x130>)
    890e:	4a09      	ldr	r2, [pc, #36]	; (8934 <uart_init+0x140>)
    8910:	5888      	ldr	r0, [r1, r2]
    8912:	2380      	movs	r3, #128	; 0x80
    8914:	015b      	lsls	r3, r3, #5
    8916:	4303      	orrs	r3, r0
    8918:	508b      	str	r3, [r1, r2]
D:\Users\lihaifeng\Desktop\嵌入式\实验考核题目\1\Flash_KL36_20201030\Debug/srcc/uart.c:138
    			break;
    891a:	e77a      	b.n	8812 <uart_init+0x1e>
    891c:	00009928 	.word	0x00009928
    8920:	20000404 	.word	0x20000404
    8924:	40047000 	.word	0x40047000
    8928:	00001004 	.word	0x00001004
    892c:	fffeffff 	.word	0xfffeffff
    8930:	4004d000 	.word	0x4004d000
    8934:	00001034 	.word	0x00001034
    8938:	4006a000 	.word	0x4006a000

0000893c <uart_send1>:
uart_send1():
D:\Users\lihaifeng\Desktop\嵌入式\实验考核题目\1\Flash_KL36_20201030\Debug/srcc/uart.c:173
{
    893c:	b570      	push	{r4, r5, r6, lr}
    893e:	0005      	movs	r5, r0
    8940:	000c      	movs	r4, r1
D:\Users\lihaifeng\Desktop\嵌入式\实验考核题目\1\Flash_KL36_20201030\Debug/srcc/uart.c:177
    UART_MemMapPtr UART_2h_1_2 = UART_ARR[uartNo-1]; //获取UART1或者2基地址
    8942:	1e43      	subs	r3, r0, #1
    8944:	009b      	lsls	r3, r3, #2
    8946:	4a11      	ldr	r2, [pc, #68]	; (898c <uart_send1+0x50>)
    8948:	589e      	ldr	r6, [r3, r2]
D:\Users\lihaifeng\Desktop\嵌入式\实验考核题目\1\Flash_KL36_20201030\Debug/srcc/uart.c:185
    if(!uart_is_uartNo(uartNo))
    894a:	f7ff ff4d 	bl	87e8 <uart_is_uartNo>
    894e:	2800      	cmp	r0, #0
    8950:	d016      	beq.n	8980 <uart_send1+0x44>
D:\Users\lihaifeng\Desktop\嵌入式\实验考核题目\1\Flash_KL36_20201030\Debug/srcc/uart.c:190
    for (t = 0; t < 0xFBBB; t++)//查询指定次数
    8952:	2300      	movs	r3, #0
    8954:	e004      	b.n	8960 <uart_send1+0x24>
D:\Users\lihaifeng\Desktop\嵌入式\实验考核题目\1\Flash_KL36_20201030\Debug/srcc/uart.c:204
            if (UART_S1_REG(UART_2h_1_2) & UART_S1_TDRE_MASK )
    8956:	7932      	ldrb	r2, [r6, #4]
    8958:	b252      	sxtb	r2, r2
    895a:	2a00      	cmp	r2, #0
    895c:	db11      	blt.n	8982 <uart_send1+0x46>
D:\Users\lihaifeng\Desktop\嵌入式\实验考核题目\1\Flash_KL36_20201030\Debug/srcc/uart.c:190 (discriminator 2)
    for (t = 0; t < 0xFBBB; t++)//查询指定次数
    895e:	3301      	adds	r3, #1
D:\Users\lihaifeng\Desktop\嵌入式\实验考核题目\1\Flash_KL36_20201030\Debug/srcc/uart.c:190 (discriminator 1)
    8960:	4a0b      	ldr	r2, [pc, #44]	; (8990 <uart_send1+0x54>)
    8962:	4293      	cmp	r3, r2
    8964:	d808      	bhi.n	8978 <uart_send1+0x3c>
D:\Users\lihaifeng\Desktop\嵌入式\实验考核题目\1\Flash_KL36_20201030\Debug/srcc/uart.c:192
        if(0==uartNo)     //判断使用的哪个串口
    8966:	2d00      	cmp	r5, #0
    8968:	d1f5      	bne.n	8956 <uart_send1+0x1a>
D:\Users\lihaifeng\Desktop\嵌入式\实验考核题目\1\Flash_KL36_20201030\Debug/srcc/uart.c:195
            if ( UART0_S1_REG(UART_2h_0) & UART0_S1_TDRE_MASK )
    896a:	4a0a      	ldr	r2, [pc, #40]	; (8994 <uart_send1+0x58>)
    896c:	7912      	ldrb	r2, [r2, #4]
    896e:	b252      	sxtb	r2, r2
    8970:	2a00      	cmp	r2, #0
    8972:	daf4      	bge.n	895e <uart_send1+0x22>
D:\Users\lihaifeng\Desktop\嵌入式\实验考核题目\1\Flash_KL36_20201030\Debug/srcc/uart.c:197
                UART0_D_REG(UART_2h_0) = ch;
    8974:	4a07      	ldr	r2, [pc, #28]	; (8994 <uart_send1+0x58>)
    8976:	71d4      	strb	r4, [r2, #7]
D:\Users\lihaifeng\Desktop\嵌入式\实验考核题目\1\Flash_KL36_20201030\Debug/srcc/uart.c:217
    if (t >= 0xFBBB)
    8978:	4a05      	ldr	r2, [pc, #20]	; (8990 <uart_send1+0x54>)
    897a:	4293      	cmp	r3, r2
    897c:	d803      	bhi.n	8986 <uart_send1+0x4a>
D:\Users\lihaifeng\Desktop\嵌入式\实验考核题目\1\Flash_KL36_20201030\Debug/srcc/uart.c:220
        return 1; //成功发送
    897e:	2001      	movs	r0, #1
D:\Users\lihaifeng\Desktop\嵌入式\实验考核题目\1\Flash_KL36_20201030\Debug/srcc/uart.c:221
}
    8980:	bd70      	pop	{r4, r5, r6, pc}
D:\Users\lihaifeng\Desktop\嵌入式\实验考核题目\1\Flash_KL36_20201030\Debug/srcc/uart.c:206
                UART_D_REG(UART_2h_1_2) = ch;
    8982:	71f4      	strb	r4, [r6, #7]
D:\Users\lihaifeng\Desktop\嵌入式\实验考核题目\1\Flash_KL36_20201030\Debug/srcc/uart.c:207
                break;
    8984:	e7f8      	b.n	8978 <uart_send1+0x3c>
D:\Users\lihaifeng\Desktop\嵌入式\实验考核题目\1\Flash_KL36_20201030\Debug/srcc/uart.c:218
        return 0; //发送超时，发送失败
    8986:	2000      	movs	r0, #0
    8988:	e7fa      	b.n	8980 <uart_send1+0x44>
    898a:	46c0      	nop			; (mov r8, r8)
    898c:	00009928 	.word	0x00009928
    8990:	0000fbba 	.word	0x0000fbba
    8994:	4006a000 	.word	0x4006a000

00008998 <uart_sendN>:
uart_sendN():
D:\Users\lihaifeng\Desktop\嵌入式\实验考核题目\1\Flash_KL36_20201030\Debug/srcc/uart.c:231
{
    8998:	b5f8      	push	{r3, r4, r5, r6, r7, lr}
    899a:	0005      	movs	r5, r0
    899c:	000e      	movs	r6, r1
    899e:	0017      	movs	r7, r2
D:\Users\lihaifeng\Desktop\嵌入式\实验考核题目\1\Flash_KL36_20201030\Debug/srcc/uart.c:235
    if(!uart_is_uartNo(uartNo))
    89a0:	f7ff ff22 	bl	87e8 <uart_is_uartNo>
    89a4:	2800      	cmp	r0, #0
    89a6:	d00e      	beq.n	89c6 <uart_sendN+0x2e>
D:\Users\lihaifeng\Desktop\嵌入式\实验考核题目\1\Flash_KL36_20201030\Debug/srcc/uart.c:240
    for (i = 0; i < len; i++)
    89a8:	2400      	movs	r4, #0
D:\Users\lihaifeng\Desktop\嵌入式\实验考核题目\1\Flash_KL36_20201030\Debug/srcc/uart.c:240 (discriminator 1)
    89aa:	42b4      	cmp	r4, r6
    89ac:	d208      	bcs.n	89c0 <uart_sendN+0x28>
D:\Users\lihaifeng\Desktop\嵌入式\实验考核题目\1\Flash_KL36_20201030\Debug/srcc/uart.c:242
        if (!uart_send1(uartNo, buff[i])) //发送一个字节数据，失败则跳出循环
    89ae:	5d39      	ldrb	r1, [r7, r4]
    89b0:	0028      	movs	r0, r5
    89b2:	f7ff ffc3 	bl	893c <uart_send1>
    89b6:	2800      	cmp	r0, #0
    89b8:	d002      	beq.n	89c0 <uart_sendN+0x28>
D:\Users\lihaifeng\Desktop\嵌入式\实验考核题目\1\Flash_KL36_20201030\Debug/srcc/uart.c:240 (discriminator 2)
    for (i = 0; i < len; i++)
    89ba:	3401      	adds	r4, #1
    89bc:	b2a4      	uxth	r4, r4
    89be:	e7f4      	b.n	89aa <uart_sendN+0x12>
D:\Users\lihaifeng\Desktop\嵌入式\实验考核题目\1\Flash_KL36_20201030\Debug/srcc/uart.c:247
    if(i<len)
    89c0:	42b4      	cmp	r4, r6
    89c2:	d301      	bcc.n	89c8 <uart_sendN+0x30>
D:\Users\lihaifeng\Desktop\嵌入式\实验考核题目\1\Flash_KL36_20201030\Debug/srcc/uart.c:250
        return 1;    //发送出错
    89c4:	2001      	movs	r0, #1
D:\Users\lihaifeng\Desktop\嵌入式\实验考核题目\1\Flash_KL36_20201030\Debug/srcc/uart.c:251
}
    89c6:	bdf8      	pop	{r3, r4, r5, r6, r7, pc}
D:\Users\lihaifeng\Desktop\嵌入式\实验考核题目\1\Flash_KL36_20201030\Debug/srcc/uart.c:248
        return 0;    //发送出错
    89c8:	2000      	movs	r0, #0
    89ca:	e7fc      	b.n	89c6 <uart_sendN+0x2e>

000089cc <uart_send_string>:
uart_send_string():
D:\Users\lihaifeng\Desktop\嵌入式\实验考核题目\1\Flash_KL36_20201030\Debug/srcc/uart.c:260
{
    89cc:	b570      	push	{r4, r5, r6, lr}
    89ce:	0004      	movs	r4, r0
    89d0:	000e      	movs	r6, r1
D:\Users\lihaifeng\Desktop\嵌入式\实验考核题目\1\Flash_KL36_20201030\Debug/srcc/uart.c:265
    if(!uart_is_uartNo(uartNo))
    89d2:	f7ff ff09 	bl	87e8 <uart_is_uartNo>
    89d6:	2800      	cmp	r0, #0
    89d8:	d00c      	beq.n	89f4 <uart_send_string+0x28>
D:\Users\lihaifeng\Desktop\嵌入式\实验考核题目\1\Flash_KL36_20201030\Debug/srcc/uart.c:270
    for(i = 0; buff_ptr[i] != '\0'; i++)   //遍历字符串里的字符
    89da:	2500      	movs	r5, #0
D:\Users\lihaifeng\Desktop\嵌入式\实验考核题目\1\Flash_KL36_20201030\Debug/srcc/uart.c:270 (discriminator 1)
    89dc:	5d71      	ldrb	r1, [r6, r5]
    89de:	2900      	cmp	r1, #0
    89e0:	d007      	beq.n	89f2 <uart_send_string+0x26>
D:\Users\lihaifeng\Desktop\嵌入式\实验考核题目\1\Flash_KL36_20201030\Debug/srcc/uart.c:272
        if (!uart_send1(uartNo,buff_ptr[i]))//发送指针对应的字符
    89e2:	0020      	movs	r0, r4
    89e4:	f7ff ffaa 	bl	893c <uart_send1>
    89e8:	2800      	cmp	r0, #0
    89ea:	d003      	beq.n	89f4 <uart_send_string+0x28>
D:\Users\lihaifeng\Desktop\嵌入式\实验考核题目\1\Flash_KL36_20201030\Debug/srcc/uart.c:270 (discriminator 2)
    for(i = 0; buff_ptr[i] != '\0'; i++)   //遍历字符串里的字符
    89ec:	3501      	adds	r5, #1
    89ee:	b2ad      	uxth	r5, r5
    89f0:	e7f4      	b.n	89dc <uart_send_string+0x10>
D:\Users\lihaifeng\Desktop\嵌入式\实验考核题目\1\Flash_KL36_20201030\Debug/srcc/uart.c:275
    return 1;          //发送成功
    89f2:	2001      	movs	r0, #1
D:\Users\lihaifeng\Desktop\嵌入式\实验考核题目\1\Flash_KL36_20201030\Debug/srcc/uart.c:276
}
    89f4:	bd70      	pop	{r4, r5, r6, pc}
	...

000089f8 <uart_re1>:
uart_re1():
D:\Users\lihaifeng\Desktop\嵌入式\实验考核题目\1\Flash_KL36_20201030\Debug/srcc/uart.c:285
{
    89f8:	b570      	push	{r4, r5, r6, lr}
    89fa:	0004      	movs	r4, r0
    89fc:	000e      	movs	r6, r1
D:\Users\lihaifeng\Desktop\嵌入式\实验考核题目\1\Flash_KL36_20201030\Debug/srcc/uart.c:289
    UART_MemMapPtr UART_2h_1_2 = UART_ARR[uartNo-1]; //获取UART1或者2基地址
    89fe:	1e43      	subs	r3, r0, #1
    8a00:	009b      	lsls	r3, r3, #2
    8a02:	4a14      	ldr	r2, [pc, #80]	; (8a54 <uart_re1+0x5c>)
    8a04:	589d      	ldr	r5, [r3, r2]
D:\Users\lihaifeng\Desktop\嵌入式\实验考核题目\1\Flash_KL36_20201030\Debug/srcc/uart.c:292
    if(!uart_is_uartNo(uartNo))
    8a06:	f7ff feef 	bl	87e8 <uart_is_uartNo>
    8a0a:	2800      	cmp	r0, #0
    8a0c:	d001      	beq.n	8a12 <uart_re1+0x1a>
D:\Users\lihaifeng\Desktop\嵌入式\实验考核题目\1\Flash_KL36_20201030\Debug/srcc/uart.c:298
    for (t = 0; t < 0xFBBB; t++)//查询指定次数
    8a0e:	2300      	movs	r3, #0
    8a10:	e006      	b.n	8a20 <uart_re1+0x28>
D:\Users\lihaifeng\Desktop\嵌入式\实验考核题目\1\Flash_KL36_20201030\Debug/srcc/uart.c:294
        *fp=0;
    8a12:	2300      	movs	r3, #0
    8a14:	7033      	strb	r3, [r6, #0]
D:\Users\lihaifeng\Desktop\嵌入式\实验考核题目\1\Flash_KL36_20201030\Debug/srcc/uart.c:327
}
    8a16:	bd70      	pop	{r4, r5, r6, pc}
D:\Users\lihaifeng\Desktop\嵌入式\实验考核题目\1\Flash_KL36_20201030\Debug/srcc/uart.c:313
            if(UART_S1_REG(UART_2h_1_2) & UART_S1_RDRF_MASK)
    8a18:	792a      	ldrb	r2, [r5, #4]
    8a1a:	0692      	lsls	r2, r2, #26
    8a1c:	d415      	bmi.n	8a4a <uart_re1+0x52>
D:\Users\lihaifeng\Desktop\嵌入式\实验考核题目\1\Flash_KL36_20201030\Debug/srcc/uart.c:298 (discriminator 2)
    for (t = 0; t < 0xFBBB; t++)//查询指定次数
    8a1e:	3301      	adds	r3, #1
D:\Users\lihaifeng\Desktop\嵌入式\实验考核题目\1\Flash_KL36_20201030\Debug/srcc/uart.c:298 (discriminator 1)
    8a20:	4a0d      	ldr	r2, [pc, #52]	; (8a58 <uart_re1+0x60>)
    8a22:	4293      	cmp	r3, r2
    8a24:	d80a      	bhi.n	8a3c <uart_re1+0x44>
D:\Users\lihaifeng\Desktop\嵌入式\实验考核题目\1\Flash_KL36_20201030\Debug/srcc/uart.c:300
        if(0==uartNo)  //判断使用的哪个串口
    8a26:	2c00      	cmp	r4, #0
    8a28:	d1f6      	bne.n	8a18 <uart_re1+0x20>
D:\Users\lihaifeng\Desktop\嵌入式\实验考核题目\1\Flash_KL36_20201030\Debug/srcc/uart.c:303
        if (UART0_S1_REG(UART_2h_0) & UART0_S1_RDRF_MASK)
    8a2a:	4a0c      	ldr	r2, [pc, #48]	; (8a5c <uart_re1+0x64>)
    8a2c:	7912      	ldrb	r2, [r2, #4]
    8a2e:	0692      	lsls	r2, r2, #26
    8a30:	d5f5      	bpl.n	8a1e <uart_re1+0x26>
D:\Users\lihaifeng\Desktop\嵌入式\实验考核题目\1\Flash_KL36_20201030\Debug/srcc/uart.c:305
                dat=UART0_D_REG(UART_2h_0);    //获取数据,清接收中断位
    8a32:	4a0a      	ldr	r2, [pc, #40]	; (8a5c <uart_re1+0x64>)
    8a34:	79d0      	ldrb	r0, [r2, #7]
    8a36:	b2c0      	uxtb	r0, r0
D:\Users\lihaifeng\Desktop\嵌入式\实验考核题目\1\Flash_KL36_20201030\Debug/srcc/uart.c:306
                *fp = 1;  //接收成功
    8a38:	2201      	movs	r2, #1
    8a3a:	7032      	strb	r2, [r6, #0]
D:\Users\lihaifeng\Desktop\嵌入式\实验考核题目\1\Flash_KL36_20201030\Debug/srcc/uart.c:321
    if(t >= 0xFBBB) 
    8a3c:	4a06      	ldr	r2, [pc, #24]	; (8a58 <uart_re1+0x60>)
    8a3e:	4293      	cmp	r3, r2
    8a40:	d9e9      	bls.n	8a16 <uart_re1+0x1e>
D:\Users\lihaifeng\Desktop\嵌入式\实验考核题目\1\Flash_KL36_20201030\Debug/srcc/uart.c:324
        *fp = 0;    //未收到数据
    8a42:	2300      	movs	r3, #0
    8a44:	7033      	strb	r3, [r6, #0]
D:\Users\lihaifeng\Desktop\嵌入式\实验考核题目\1\Flash_KL36_20201030\Debug/srcc/uart.c:323
        dat = 0xFF; 
    8a46:	20ff      	movs	r0, #255	; 0xff
    8a48:	e7e5      	b.n	8a16 <uart_re1+0x1e>
D:\Users\lihaifeng\Desktop\嵌入式\实验考核题目\1\Flash_KL36_20201030\Debug/srcc/uart.c:315
                dat=UART_D_REG(UART_2h_1_2);    //获取数据,清接收中断位
    8a4a:	79e8      	ldrb	r0, [r5, #7]
    8a4c:	b2c0      	uxtb	r0, r0
D:\Users\lihaifeng\Desktop\嵌入式\实验考核题目\1\Flash_KL36_20201030\Debug/srcc/uart.c:316
                *fp= 1;  //接收成功
    8a4e:	2201      	movs	r2, #1
    8a50:	7032      	strb	r2, [r6, #0]
D:\Users\lihaifeng\Desktop\嵌入式\实验考核题目\1\Flash_KL36_20201030\Debug/srcc/uart.c:317
                break;
    8a52:	e7f3      	b.n	8a3c <uart_re1+0x44>
    8a54:	00009928 	.word	0x00009928
    8a58:	0000fbba 	.word	0x0000fbba
    8a5c:	4006a000 	.word	0x4006a000

00008a60 <UART0_IRQHandler>:
UART0_IRQHandler():
D:\Users\lihaifeng\Desktop\嵌入式\实验考核题目\1\Flash_KL36_20201030\Debug/srcc/isr.c:20
//功    能：收到一个字节，直接返回该字节
//备    注：进入本程序后，可使用uart_get_re_int函数可再进行中断标志判断
//          （1-有UART接收中断，0-没有UART接收中断）
//======================================================================
void UART_User_Handler(void)
{
    8a60:	b5f0      	push	{r4, r5, r6, r7, lr}
    8a62:	4cb9      	ldr	r4, [pc, #740]	; (8d48 <UART0_IRQHandler+0x2e8>)
    8a64:	44a5      	add	sp, r4
D:\Users\lihaifeng\Desktop\嵌入式\实验考核题目\1\Flash_KL36_20201030\Debug/srcc/isr.c:31
    uint8_t a;
    uint16_t len;
    uint8_t flashRead[2048];


	DISABLE_INTERRUPTS;      //关总中断
    8a66:	b672      	cpsid	i
D:\Users\lihaifeng\Desktop\嵌入式\实验考核题目\1\Flash_KL36_20201030\Debug/srcc/isr.c:35
	//------------------------------------------------------------------
	//接收一个字节
	//（1）接收一个字节
	ch = uart_re1(UART_User, &flag);   //调用接收一个字节的函数，清接收中断位
    8a68:	4cb8      	ldr	r4, [pc, #736]	; (8d4c <UART0_IRQHandler+0x2ec>)
    8a6a:	446c      	add	r4, sp
    8a6c:	0021      	movs	r1, r4
    8a6e:	2000      	movs	r0, #0
    8a70:	f7ff ffc2 	bl	89f8 <uart_re1>
D:\Users\lihaifeng\Desktop\嵌入式\实验考核题目\1\Flash_KL36_20201030\Debug/srcc/isr.c:37

	if(flag==0)  goto UARTA_IRQHandler_Exit;     //若没有成功接收数据，直接退出
    8a74:	7823      	ldrb	r3, [r4, #0]
    8a76:	2b00      	cmp	r3, #0
    8a78:	d106      	bne.n	8a88 <UART0_IRQHandler+0x28>
D:\Users\lihaifeng\Desktop\嵌入式\实验考核题目\1\Flash_KL36_20201030\Debug/srcc/isr.c:231
					 break;
		   }

    }
	UARTA_IRQHandler_Exit:
	gcRecvLen = 0;  //恢复接收状态
    8a7a:	4bb5      	ldr	r3, [pc, #724]	; (8d50 <UART0_IRQHandler+0x2f0>)
    8a7c:	2200      	movs	r2, #0
    8a7e:	701a      	strb	r2, [r3, #0]
D:\Users\lihaifeng\Desktop\嵌入式\实验考核题目\1\Flash_KL36_20201030\Debug/srcc/isr.c:234

	//------------------------------------------------------------------
	ENABLE_INTERRUPTS;       //开总中断
    8a80:	b662      	cpsie	i
D:\Users\lihaifeng\Desktop\嵌入式\实验考核题目\1\Flash_KL36_20201030\Debug/srcc/isr.c:235
}
    8a82:	4bb4      	ldr	r3, [pc, #720]	; (8d54 <UART0_IRQHandler+0x2f4>)
    8a84:	449d      	add	sp, r3
    8a86:	bdf0      	pop	{r4, r5, r6, r7, pc}
D:\Users\lihaifeng\Desktop\嵌入式\实验考核题目\1\Flash_KL36_20201030\Debug/srcc/isr.c:39
	gcRecvLen = emuart_recv(ch,gcRecvBuf);         //组帧程序仅当组帧完成时返回非0帧长
    8a88:	49b3      	ldr	r1, [pc, #716]	; (8d58 <UART0_IRQHandler+0x2f8>)
    8a8a:	f7ff fba3 	bl	81d4 <emuart_recv>
    8a8e:	b2c0      	uxtb	r0, r0
    8a90:	4baf      	ldr	r3, [pc, #700]	; (8d50 <UART0_IRQHandler+0x2f0>)
    8a92:	7018      	strb	r0, [r3, #0]
D:\Users\lihaifeng\Desktop\嵌入式\实验考核题目\1\Flash_KL36_20201030\Debug/srcc/isr.c:40
	if(gcRecvLen == 0) goto UARTA_IRQHandler_Exit;//未组帧直接退出，直接退出
    8a94:	2800      	cmp	r0, #0
    8a96:	d0f0      	beq.n	8a7a <UART0_IRQHandler+0x1a>
D:\Users\lihaifeng\Desktop\嵌入式\实验考核题目\1\Flash_KL36_20201030\Debug/srcc/isr.c:43
    if(gcRecvBuf[0]==11&&strncmp((char *)(gcRecvBuf+1),"auart?",6) == 0)
    8a98:	4baf      	ldr	r3, [pc, #700]	; (8d58 <UART0_IRQHandler+0x2f8>)
    8a9a:	781b      	ldrb	r3, [r3, #0]
    8a9c:	2b0b      	cmp	r3, #11
    8a9e:	d00c      	beq.n	8aba <UART0_IRQHandler+0x5a>
D:\Users\lihaifeng\Desktop\嵌入式\实验考核题目\1\Flash_KL36_20201030\Debug/srcc/isr.c:49
	if(gcRecvBuf[0]!=0xFF)
    8aa0:	4bad      	ldr	r3, [pc, #692]	; (8d58 <UART0_IRQHandler+0x2f8>)
    8aa2:	781b      	ldrb	r3, [r3, #0]
    8aa4:	2bff      	cmp	r3, #255	; 0xff
    8aa6:	d0e8      	beq.n	8a7a <UART0_IRQHandler+0x1a>
D:\Users\lihaifeng\Desktop\嵌入式\实验考核题目\1\Flash_KL36_20201030\Debug/srcc/isr.c:52
		   switch(gcRecvBuf[0])
    8aa8:	3b57      	subs	r3, #87	; 0x57
    8aaa:	b2da      	uxtb	r2, r3
    8aac:	2a21      	cmp	r2, #33	; 0x21
    8aae:	d900      	bls.n	8ab2 <UART0_IRQHandler+0x52>
    8ab0:	e145      	b.n	8d3e <UART0_IRQHandler+0x2de>
    8ab2:	0093      	lsls	r3, r2, #2
    8ab4:	4aa9      	ldr	r2, [pc, #676]	; (8d5c <UART0_IRQHandler+0x2fc>)
    8ab6:	58d3      	ldr	r3, [r2, r3]
    8ab8:	469f      	mov	pc, r3
D:\Users\lihaifeng\Desktop\嵌入式\实验考核题目\1\Flash_KL36_20201030\Debug/srcc/isr.c:43 (discriminator 1)
    if(gcRecvBuf[0]==11&&strncmp((char *)(gcRecvBuf+1),"auart?",6) == 0)
    8aba:	2206      	movs	r2, #6
    8abc:	49a8      	ldr	r1, [pc, #672]	; (8d60 <UART0_IRQHandler+0x300>)
    8abe:	48a9      	ldr	r0, [pc, #676]	; (8d64 <UART0_IRQHandler+0x304>)
    8ac0:	f000 fdaf 	bl	9622 <strncmp>
    8ac4:	2800      	cmp	r0, #0
    8ac6:	d1eb      	bne.n	8aa0 <UART0_IRQHandler+0x40>
D:\Users\lihaifeng\Desktop\嵌入式\实验考核题目\1\Flash_KL36_20201030\Debug/srcc/isr.c:45
        uart_send_string(UART_User,"Yes,I am an emuart!!");                   //与上位机握手，确立通信关系
    8ac8:	49a7      	ldr	r1, [pc, #668]	; (8d68 <UART0_IRQHandler+0x308>)
    8aca:	f7ff ff7f 	bl	89cc <uart_send_string>
D:\Users\lihaifeng\Desktop\嵌入式\实验考核题目\1\Flash_KL36_20201030\Debug/srcc/isr.c:46
        uart_send_string(UART_User,(uint8_t *)MCU_TYPE);
    8ace:	49a7      	ldr	r1, [pc, #668]	; (8d6c <UART0_IRQHandler+0x30c>)
    8ad0:	2000      	movs	r0, #0
    8ad2:	f7ff ff7b 	bl	89cc <uart_send_string>
    8ad6:	e7e3      	b.n	8aa0 <UART0_IRQHandler+0x40>
D:\Users\lihaifeng\Desktop\嵌入式\实验考核题目\1\Flash_KL36_20201030\Debug/srcc/isr.c:55
		        	len=(gcRecvBuf[4]<<8)|gcRecvBuf[5];
    8ad8:	4b9f      	ldr	r3, [pc, #636]	; (8d58 <UART0_IRQHandler+0x2f8>)
    8ada:	791c      	ldrb	r4, [r3, #4]
    8adc:	0224      	lsls	r4, r4, #8
    8ade:	795a      	ldrb	r2, [r3, #5]
    8ae0:	4314      	orrs	r4, r2
D:\Users\lihaifeng\Desktop\嵌入式\实验考核题目\1\Flash_KL36_20201030\Debug/srcc/isr.c:56
					flash_read_logic(flashRead,gcRecvBuf[1],(gcRecvBuf[2]<<8)|gcRecvBuf[3],len);
    8ae2:	7899      	ldrb	r1, [r3, #2]
    8ae4:	0209      	lsls	r1, r1, #8
    8ae6:	78da      	ldrb	r2, [r3, #3]
    8ae8:	430a      	orrs	r2, r1
    8aea:	7859      	ldrb	r1, [r3, #1]
    8aec:	0023      	movs	r3, r4
    8aee:	a801      	add	r0, sp, #4
    8af0:	f7ff fcf4 	bl	84dc <flash_read_logic>
D:\Users\lihaifeng\Desktop\嵌入式\实验考核题目\1\Flash_KL36_20201030\Debug/srcc/isr.c:58
					for(i=0;i<len;i++)   //判空
    8af4:	2300      	movs	r3, #0
    8af6:	e000      	b.n	8afa <UART0_IRQHandler+0x9a>
D:\Users\lihaifeng\Desktop\嵌入式\实验考核题目\1\Flash_KL36_20201030\Debug/srcc/isr.c:58 (discriminator 2)
    8af8:	3301      	adds	r3, #1
D:\Users\lihaifeng\Desktop\嵌入式\实验考核题目\1\Flash_KL36_20201030\Debug/srcc/isr.c:58 (discriminator 1)
    8afa:	429c      	cmp	r4, r3
    8afc:	d905      	bls.n	8b0a <UART0_IRQHandler+0xaa>
D:\Users\lihaifeng\Desktop\嵌入式\实验考核题目\1\Flash_KL36_20201030\Debug/srcc/isr.c:60
					   if(flashRead[i]!=0xFF)
    8afe:	aa01      	add	r2, sp, #4
    8b00:	5cd2      	ldrb	r2, [r2, r3]
    8b02:	2aff      	cmp	r2, #255	; 0xff
    8b04:	d0f8      	beq.n	8af8 <UART0_IRQHandler+0x98>
D:\Users\lihaifeng\Desktop\嵌入式\实验考核题目\1\Flash_KL36_20201030\Debug/srcc/isr.c:62
						   mFlag=0;
    8b06:	2300      	movs	r3, #0
    8b08:	e000      	b.n	8b0c <UART0_IRQHandler+0xac>
D:\Users\lihaifeng\Desktop\嵌入式\实验考核题目\1\Flash_KL36_20201030\Debug/srcc/isr.c:57
					mFlag=1;
    8b0a:	2301      	movs	r3, #1
D:\Users\lihaifeng\Desktop\嵌入式\实验考核题目\1\Flash_KL36_20201030\Debug/srcc/isr.c:67
					if(mFlag==1)
    8b0c:	2b01      	cmp	r3, #1
    8b0e:	d00a      	beq.n	8b26 <UART0_IRQHandler+0xc6>
D:\Users\lihaifeng\Desktop\嵌入式\实验考核题目\1\Flash_KL36_20201030\Debug/srcc/isr.c:70
						uart_sendN(UART_User,len,flashRead);
    8b10:	aa01      	add	r2, sp, #4
    8b12:	0021      	movs	r1, r4
    8b14:	2000      	movs	r0, #0
    8b16:	f7ff ff3f 	bl	8998 <uart_sendN>
D:\Users\lihaifeng\Desktop\嵌入式\实验考核题目\1\Flash_KL36_20201030\Debug/srcc/isr.c:74
					memset(gcRecvBuf,0xFF,gcRecvBuf[5]);
    8b1a:	488f      	ldr	r0, [pc, #572]	; (8d58 <UART0_IRQHandler+0x2f8>)
    8b1c:	7942      	ldrb	r2, [r0, #5]
    8b1e:	21ff      	movs	r1, #255	; 0xff
    8b20:	f000 fd77 	bl	9612 <memset>
D:\Users\lihaifeng\Desktop\嵌入式\实验考核题目\1\Flash_KL36_20201030\Debug/srcc/isr.c:76
					 break;
    8b24:	e7a9      	b.n	8a7a <UART0_IRQHandler+0x1a>
D:\Users\lihaifeng\Desktop\嵌入式\实验考核题目\1\Flash_KL36_20201030\Debug/srcc/isr.c:68
						uart_send_string(UART_User," selected area is empty1\n");
    8b26:	4992      	ldr	r1, [pc, #584]	; (8d70 <UART0_IRQHandler+0x310>)
    8b28:	2000      	movs	r0, #0
    8b2a:	f7ff ff4f 	bl	89cc <uart_send_string>
    8b2e:	e7f4      	b.n	8b1a <UART0_IRQHandler+0xba>
D:\Users\lihaifeng\Desktop\嵌入式\实验考核题目\1\Flash_KL36_20201030\Debug/srcc/isr.c:80
					flash_read_physical(flashRead,(gcRecvBuf[1]<<24)|(gcRecvBuf[2]<<16)|(gcRecvBuf[3]<<8)|gcRecvBuf[4],gcRecvBuf[5]);
    8b30:	4b89      	ldr	r3, [pc, #548]	; (8d58 <UART0_IRQHandler+0x2f8>)
    8b32:	7859      	ldrb	r1, [r3, #1]
    8b34:	0609      	lsls	r1, r1, #24
    8b36:	789a      	ldrb	r2, [r3, #2]
    8b38:	0412      	lsls	r2, r2, #16
    8b3a:	4311      	orrs	r1, r2
    8b3c:	78da      	ldrb	r2, [r3, #3]
    8b3e:	0212      	lsls	r2, r2, #8
    8b40:	4311      	orrs	r1, r2
    8b42:	791a      	ldrb	r2, [r3, #4]
    8b44:	4311      	orrs	r1, r2
    8b46:	795a      	ldrb	r2, [r3, #5]
    8b48:	a801      	add	r0, sp, #4
    8b4a:	f7ff fcce 	bl	84ea <flash_read_physical>
D:\Users\lihaifeng\Desktop\嵌入式\实验考核题目\1\Flash_KL36_20201030\Debug/srcc/isr.c:83
					for(i=0;i<gcRecvBuf[5];i++)   //判空
    8b4e:	2300      	movs	r3, #0
    8b50:	e000      	b.n	8b54 <UART0_IRQHandler+0xf4>
D:\Users\lihaifeng\Desktop\嵌入式\实验考核题目\1\Flash_KL36_20201030\Debug/srcc/isr.c:83 (discriminator 2)
    8b52:	3301      	adds	r3, #1
D:\Users\lihaifeng\Desktop\嵌入式\实验考核题目\1\Flash_KL36_20201030\Debug/srcc/isr.c:83 (discriminator 1)
    8b54:	4a80      	ldr	r2, [pc, #512]	; (8d58 <UART0_IRQHandler+0x2f8>)
    8b56:	7951      	ldrb	r1, [r2, #5]
    8b58:	4299      	cmp	r1, r3
    8b5a:	d905      	bls.n	8b68 <UART0_IRQHandler+0x108>
D:\Users\lihaifeng\Desktop\嵌入式\实验考核题目\1\Flash_KL36_20201030\Debug/srcc/isr.c:85
					   if(flashRead[i]!=0xFF)
    8b5c:	aa01      	add	r2, sp, #4
    8b5e:	5cd2      	ldrb	r2, [r2, r3]
    8b60:	2aff      	cmp	r2, #255	; 0xff
    8b62:	d0f6      	beq.n	8b52 <UART0_IRQHandler+0xf2>
D:\Users\lihaifeng\Desktop\嵌入式\实验考核题目\1\Flash_KL36_20201030\Debug/srcc/isr.c:87
						   mFlag=0;
    8b64:	2300      	movs	r3, #0
    8b66:	e000      	b.n	8b6a <UART0_IRQHandler+0x10a>
D:\Users\lihaifeng\Desktop\嵌入式\实验考核题目\1\Flash_KL36_20201030\Debug/srcc/isr.c:82
					mFlag=1;
    8b68:	2301      	movs	r3, #1
D:\Users\lihaifeng\Desktop\嵌入式\实验考核题目\1\Flash_KL36_20201030\Debug/srcc/isr.c:92
					if(mFlag==1)
    8b6a:	2b01      	cmp	r3, #1
    8b6c:	d00a      	beq.n	8b84 <UART0_IRQHandler+0x124>
D:\Users\lihaifeng\Desktop\嵌入式\实验考核题目\1\Flash_KL36_20201030\Debug/srcc/isr.c:95
					    uart_sendN(UART_User,gcRecvBuf[5],flashRead);
    8b6e:	b289      	uxth	r1, r1
    8b70:	aa01      	add	r2, sp, #4
    8b72:	2000      	movs	r0, #0
    8b74:	f7ff ff10 	bl	8998 <uart_sendN>
D:\Users\lihaifeng\Desktop\嵌入式\实验考核题目\1\Flash_KL36_20201030\Debug/srcc/isr.c:99
					memset(gcRecvBuf,0xFF,gcRecvBuf[5]);
    8b78:	4877      	ldr	r0, [pc, #476]	; (8d58 <UART0_IRQHandler+0x2f8>)
    8b7a:	7942      	ldrb	r2, [r0, #5]
    8b7c:	21ff      	movs	r1, #255	; 0xff
    8b7e:	f000 fd48 	bl	9612 <memset>
D:\Users\lihaifeng\Desktop\嵌入式\实验考核题目\1\Flash_KL36_20201030\Debug/srcc/isr.c:102
				 break;
    8b82:	e77a      	b.n	8a7a <UART0_IRQHandler+0x1a>
D:\Users\lihaifeng\Desktop\嵌入式\实验考核题目\1\Flash_KL36_20201030\Debug/srcc/isr.c:93
						uart_send_string(UART_User," selected area is empty2\n");
    8b84:	497b      	ldr	r1, [pc, #492]	; (8d74 <UART0_IRQHandler+0x314>)
    8b86:	2000      	movs	r0, #0
    8b88:	f7ff ff20 	bl	89cc <uart_send_string>
    8b8c:	e7f4      	b.n	8b78 <UART0_IRQHandler+0x118>
D:\Users\lihaifeng\Desktop\嵌入式\实验考核题目\1\Flash_KL36_20201030\Debug/srcc/isr.c:104
					mFlag=flash_erase(gcRecvBuf[1]);
    8b8e:	4c72      	ldr	r4, [pc, #456]	; (8d58 <UART0_IRQHandler+0x2f8>)
    8b90:	7860      	ldrb	r0, [r4, #1]
    8b92:	f7ff fcdf 	bl	8554 <flash_erase>
D:\Users\lihaifeng\Desktop\嵌入式\实验考核题目\1\Flash_KL36_20201030\Debug/srcc/isr.c:105
					mFlag=flash_write(gcRecvBuf[1], (gcRecvBuf[2]<<8)|gcRecvBuf[3],gcRecvBuf[4],&gcRecvBuf[5]);
    8b96:	7860      	ldrb	r0, [r4, #1]
    8b98:	78a3      	ldrb	r3, [r4, #2]
    8b9a:	021b      	lsls	r3, r3, #8
    8b9c:	78e1      	ldrb	r1, [r4, #3]
    8b9e:	4319      	orrs	r1, r3
    8ba0:	7922      	ldrb	r2, [r4, #4]
    8ba2:	1d63      	adds	r3, r4, #5
    8ba4:	f7ff fd0a 	bl	85bc <flash_write>
D:\Users\lihaifeng\Desktop\嵌入式\实验考核题目\1\Flash_KL36_20201030\Debug/srcc/isr.c:107
					if(mFlag==0)
    8ba8:	2800      	cmp	r0, #0
    8baa:	d108      	bne.n	8bbe <UART0_IRQHandler+0x15e>
D:\Users\lihaifeng\Desktop\嵌入式\实验考核题目\1\Flash_KL36_20201030\Debug/srcc/isr.c:108
						uart_send_string(UART_User,"Write OK！!\n");
    8bac:	4972      	ldr	r1, [pc, #456]	; (8d78 <UART0_IRQHandler+0x318>)
    8bae:	f7ff ff0d 	bl	89cc <uart_send_string>
D:\Users\lihaifeng\Desktop\嵌入式\实验考核题目\1\Flash_KL36_20201030\Debug/srcc/isr.c:114
					memset(gcRecvBuf,0xFF,gcRecvBuf[5]);
    8bb2:	4869      	ldr	r0, [pc, #420]	; (8d58 <UART0_IRQHandler+0x2f8>)
    8bb4:	7942      	ldrb	r2, [r0, #5]
    8bb6:	21ff      	movs	r1, #255	; 0xff
    8bb8:	f000 fd2b 	bl	9612 <memset>
D:\Users\lihaifeng\Desktop\嵌入式\实验考核题目\1\Flash_KL36_20201030\Debug/srcc/isr.c:117
				 break;
    8bbc:	e75d      	b.n	8a7a <UART0_IRQHandler+0x1a>
D:\Users\lihaifeng\Desktop\嵌入式\实验考核题目\1\Flash_KL36_20201030\Debug/srcc/isr.c:110
						uart_send_string(UART_User,"Write error！!\n");
    8bbe:	496f      	ldr	r1, [pc, #444]	; (8d7c <UART0_IRQHandler+0x31c>)
    8bc0:	2000      	movs	r0, #0
    8bc2:	f7ff ff03 	bl	89cc <uart_send_string>
    8bc6:	e7f4      	b.n	8bb2 <UART0_IRQHandler+0x152>
D:\Users\lihaifeng\Desktop\嵌入式\实验考核题目\1\Flash_KL36_20201030\Debug/srcc/isr.c:119
					mFlag=flash_erase(gcRecvBuf[1]);
    8bc8:	4c63      	ldr	r4, [pc, #396]	; (8d58 <UART0_IRQHandler+0x2f8>)
    8bca:	7860      	ldrb	r0, [r4, #1]
    8bcc:	f7ff fcc2 	bl	8554 <flash_erase>
D:\Users\lihaifeng\Desktop\嵌入式\实验考核题目\1\Flash_KL36_20201030\Debug/srcc/isr.c:120
					len=(gcRecvBuf[4]<<8)|gcRecvBuf[5];
    8bd0:	7923      	ldrb	r3, [r4, #4]
    8bd2:	021b      	lsls	r3, r3, #8
    8bd4:	7962      	ldrb	r2, [r4, #5]
    8bd6:	431a      	orrs	r2, r3
D:\Users\lihaifeng\Desktop\嵌入式\实验考核题目\1\Flash_KL36_20201030\Debug/srcc/isr.c:121
					mFlag=flash_write(gcRecvBuf[1], (gcRecvBuf[2]<<8)|gcRecvBuf[3],len,&gcRecvBuf[6]);
    8bd8:	7860      	ldrb	r0, [r4, #1]
    8bda:	78a3      	ldrb	r3, [r4, #2]
    8bdc:	021b      	lsls	r3, r3, #8
    8bde:	78e1      	ldrb	r1, [r4, #3]
    8be0:	4319      	orrs	r1, r3
    8be2:	1da3      	adds	r3, r4, #6
    8be4:	f7ff fcea 	bl	85bc <flash_write>
D:\Users\lihaifeng\Desktop\嵌入式\实验考核题目\1\Flash_KL36_20201030\Debug/srcc/isr.c:123
					if(mFlag==0)
    8be8:	2800      	cmp	r0, #0
    8bea:	d108      	bne.n	8bfe <UART0_IRQHandler+0x19e>
D:\Users\lihaifeng\Desktop\嵌入式\实验考核题目\1\Flash_KL36_20201030\Debug/srcc/isr.c:124
						uart_send_string(UART_User,"Write OK！!\n");
    8bec:	4962      	ldr	r1, [pc, #392]	; (8d78 <UART0_IRQHandler+0x318>)
    8bee:	f7ff feed 	bl	89cc <uart_send_string>
D:\Users\lihaifeng\Desktop\嵌入式\实验考核题目\1\Flash_KL36_20201030\Debug/srcc/isr.c:130
					memset(gcRecvBuf,0xFF,gcRecvBuf[6]);
    8bf2:	4859      	ldr	r0, [pc, #356]	; (8d58 <UART0_IRQHandler+0x2f8>)
    8bf4:	7982      	ldrb	r2, [r0, #6]
    8bf6:	21ff      	movs	r1, #255	; 0xff
    8bf8:	f000 fd0b 	bl	9612 <memset>
D:\Users\lihaifeng\Desktop\嵌入式\实验考核题目\1\Flash_KL36_20201030\Debug/srcc/isr.c:133
				 break;
    8bfc:	e73d      	b.n	8a7a <UART0_IRQHandler+0x1a>
D:\Users\lihaifeng\Desktop\嵌入式\实验考核题目\1\Flash_KL36_20201030\Debug/srcc/isr.c:126
						uart_send_string(UART_User,"Write error！!\n");
    8bfe:	495f      	ldr	r1, [pc, #380]	; (8d7c <UART0_IRQHandler+0x31c>)
    8c00:	2000      	movs	r0, #0
    8c02:	f7ff fee3 	bl	89cc <uart_send_string>
    8c06:	e7f4      	b.n	8bf2 <UART0_IRQHandler+0x192>
D:\Users\lihaifeng\Desktop\嵌入式\实验考核题目\1\Flash_KL36_20201030\Debug/srcc/isr.c:135
					mFlag=flash_erase(gcRecvBuf[1]);
    8c08:	4b53      	ldr	r3, [pc, #332]	; (8d58 <UART0_IRQHandler+0x2f8>)
    8c0a:	7858      	ldrb	r0, [r3, #1]
    8c0c:	f7ff fca2 	bl	8554 <flash_erase>
D:\Users\lihaifeng\Desktop\嵌入式\实验考核题目\1\Flash_KL36_20201030\Debug/srcc/isr.c:138
					if(mFlag==0)
    8c10:	2800      	cmp	r0, #0
    8c12:	d108      	bne.n	8c26 <UART0_IRQHandler+0x1c6>
D:\Users\lihaifeng\Desktop\嵌入式\实验考核题目\1\Flash_KL36_20201030\Debug/srcc/isr.c:139
						uart_send_string(UART_User,"erase OK！!\n");
    8c14:	495a      	ldr	r1, [pc, #360]	; (8d80 <UART0_IRQHandler+0x320>)
    8c16:	f7ff fed9 	bl	89cc <uart_send_string>
D:\Users\lihaifeng\Desktop\嵌入式\实验考核题目\1\Flash_KL36_20201030\Debug/srcc/isr.c:145
					memset(gcRecvBuf,0xFF,gcRecvBuf[5]);
    8c1a:	484f      	ldr	r0, [pc, #316]	; (8d58 <UART0_IRQHandler+0x2f8>)
    8c1c:	7942      	ldrb	r2, [r0, #5]
    8c1e:	21ff      	movs	r1, #255	; 0xff
    8c20:	f000 fcf7 	bl	9612 <memset>
D:\Users\lihaifeng\Desktop\嵌入式\实验考核题目\1\Flash_KL36_20201030\Debug/srcc/isr.c:147
				 break;
    8c24:	e729      	b.n	8a7a <UART0_IRQHandler+0x1a>
D:\Users\lihaifeng\Desktop\嵌入式\实验考核题目\1\Flash_KL36_20201030\Debug/srcc/isr.c:141
						uart_send_string(UART_User,"erase error！!\n");
    8c26:	4957      	ldr	r1, [pc, #348]	; (8d84 <UART0_IRQHandler+0x324>)
    8c28:	2000      	movs	r0, #0
    8c2a:	f7ff fecf 	bl	89cc <uart_send_string>
    8c2e:	e7f4      	b.n	8c1a <UART0_IRQHandler+0x1ba>
D:\Users\lihaifeng\Desktop\嵌入式\实验考核题目\1\Flash_KL36_20201030\Debug/srcc/isr.c:150
					len=(gcRecvBuf[4]<<8)|gcRecvBuf[5];
    8c30:	4b49      	ldr	r3, [pc, #292]	; (8d58 <UART0_IRQHandler+0x2f8>)
    8c32:	7919      	ldrb	r1, [r3, #4]
    8c34:	0209      	lsls	r1, r1, #8
    8c36:	795a      	ldrb	r2, [r3, #5]
    8c38:	430a      	orrs	r2, r1
D:\Users\lihaifeng\Desktop\嵌入式\实验考核题目\1\Flash_KL36_20201030\Debug/srcc/isr.c:151
					mFlag=flash_write(gcRecvBuf[1], (gcRecvBuf[2]<<8)|gcRecvBuf[3],len,&gcRecvBuf[6]);
    8c3a:	7858      	ldrb	r0, [r3, #1]
    8c3c:	789c      	ldrb	r4, [r3, #2]
    8c3e:	0224      	lsls	r4, r4, #8
    8c40:	78d9      	ldrb	r1, [r3, #3]
    8c42:	4321      	orrs	r1, r4
    8c44:	3306      	adds	r3, #6
    8c46:	f7ff fcb9 	bl	85bc <flash_write>
D:\Users\lihaifeng\Desktop\嵌入式\实验考核题目\1\Flash_KL36_20201030\Debug/srcc/isr.c:153
					if(mFlag==0)
    8c4a:	2800      	cmp	r0, #0
    8c4c:	d108      	bne.n	8c60 <UART0_IRQHandler+0x200>
D:\Users\lihaifeng\Desktop\嵌入式\实验考核题目\1\Flash_KL36_20201030\Debug/srcc/isr.c:154
						uart_send_string(UART_User,"Write OK！!\n");
    8c4e:	494a      	ldr	r1, [pc, #296]	; (8d78 <UART0_IRQHandler+0x318>)
    8c50:	f7ff febc 	bl	89cc <uart_send_string>
D:\Users\lihaifeng\Desktop\嵌入式\实验考核题目\1\Flash_KL36_20201030\Debug/srcc/isr.c:160
					memset(gcRecvBuf,0xFF,gcRecvBuf[6]);
    8c54:	4840      	ldr	r0, [pc, #256]	; (8d58 <UART0_IRQHandler+0x2f8>)
    8c56:	7982      	ldrb	r2, [r0, #6]
    8c58:	21ff      	movs	r1, #255	; 0xff
    8c5a:	f000 fcda 	bl	9612 <memset>
D:\Users\lihaifeng\Desktop\嵌入式\实验考核题目\1\Flash_KL36_20201030\Debug/srcc/isr.c:163
				 break;
    8c5e:	e70c      	b.n	8a7a <UART0_IRQHandler+0x1a>
D:\Users\lihaifeng\Desktop\嵌入式\实验考核题目\1\Flash_KL36_20201030\Debug/srcc/isr.c:156
						uart_send_string(UART_User,"Write error！!\n");
    8c60:	4946      	ldr	r1, [pc, #280]	; (8d7c <UART0_IRQHandler+0x31c>)
    8c62:	2000      	movs	r0, #0
    8c64:	f7ff feb2 	bl	89cc <uart_send_string>
    8c68:	e7f4      	b.n	8c54 <UART0_IRQHandler+0x1f4>
D:\Users\lihaifeng\Desktop\嵌入式\实验考核题目\1\Flash_KL36_20201030\Debug/srcc/isr.c:166
		        	len=(gcRecvBuf[4]<<8)|gcRecvBuf[5];
    8c6a:	4b3b      	ldr	r3, [pc, #236]	; (8d58 <UART0_IRQHandler+0x2f8>)
    8c6c:	791c      	ldrb	r4, [r3, #4]
    8c6e:	0224      	lsls	r4, r4, #8
    8c70:	795b      	ldrb	r3, [r3, #5]
    8c72:	431c      	orrs	r4, r3
D:\Users\lihaifeng\Desktop\嵌入式\实验考核题目\1\Flash_KL36_20201030\Debug/srcc/isr.c:167
		        	setnum=len/1024;  //偏移的扇区数
    8c74:	0aa6      	lsrs	r6, r4, #10
    8c76:	05a7      	lsls	r7, r4, #22
    8c78:	0dbf      	lsrs	r7, r7, #22
D:\Users\lihaifeng\Desktop\嵌入式\实验考核题目\1\Flash_KL36_20201030\Debug/srcc/isr.c:169
		        	for(count=0;count<setnum;count++) //完整扇区  执行了1次后 卡住
    8c7a:	2500      	movs	r5, #0
    8c7c:	e00c      	b.n	8c98 <UART0_IRQHandler+0x238>
D:\Users\lihaifeng\Desktop\嵌入式\实验考核题目\1\Flash_KL36_20201030\Debug/srcc/isr.c:173
						mFlag=1;
    8c7e:	2301      	movs	r3, #1
D:\Users\lihaifeng\Desktop\嵌入式\实验考核题目\1\Flash_KL36_20201030\Debug/srcc/isr.c:182
						if(mFlag==1)
    8c80:	2b01      	cmp	r3, #1
    8c82:	d027      	beq.n	8cd4 <UART0_IRQHandler+0x274>
D:\Users\lihaifeng\Desktop\嵌入式\实验考核题目\1\Flash_KL36_20201030\Debug/srcc/isr.c:186
							uart_sendN(UART_User,1024,flashRead);
    8c84:	2180      	movs	r1, #128	; 0x80
    8c86:	aa01      	add	r2, sp, #4
    8c88:	00c9      	lsls	r1, r1, #3
    8c8a:	2000      	movs	r0, #0
    8c8c:	f7ff fe84 	bl	8998 <uart_sendN>
D:\Users\lihaifeng\Desktop\嵌入式\实验考核题目\1\Flash_KL36_20201030\Debug/srcc/isr.c:187
							printf("121111111\n");
    8c90:	483d      	ldr	r0, [pc, #244]	; (8d88 <UART0_IRQHandler+0x328>)
    8c92:	f000 fca3 	bl	95dc <myprintf>
D:\Users\lihaifeng\Desktop\嵌入式\实验考核题目\1\Flash_KL36_20201030\Debug/srcc/isr.c:169 (discriminator 2)
		        	for(count=0;count<setnum;count++) //完整扇区  执行了1次后 卡住
    8c96:	3501      	adds	r5, #1
D:\Users\lihaifeng\Desktop\嵌入式\实验考核题目\1\Flash_KL36_20201030\Debug/srcc/isr.c:169 (discriminator 1)
    8c98:	42b5      	cmp	r5, r6
    8c9a:	da20      	bge.n	8cde <UART0_IRQHandler+0x27e>
D:\Users\lihaifeng\Desktop\嵌入式\实验考核题目\1\Flash_KL36_20201030\Debug/srcc/isr.c:171
		        		printf("%d \n",setnum);
    8c9c:	0031      	movs	r1, r6
    8c9e:	483b      	ldr	r0, [pc, #236]	; (8d8c <UART0_IRQHandler+0x32c>)
    8ca0:	f000 fc9c 	bl	95dc <myprintf>
D:\Users\lihaifeng\Desktop\嵌入式\实验考核题目\1\Flash_KL36_20201030\Debug/srcc/isr.c:172
						flash_read_logic(flashRead,gcRecvBuf[1]+count,(gcRecvBuf[2]<<8)|gcRecvBuf[3],1024);
    8ca4:	4b2c      	ldr	r3, [pc, #176]	; (8d58 <UART0_IRQHandler+0x2f8>)
    8ca6:	7859      	ldrb	r1, [r3, #1]
    8ca8:	7898      	ldrb	r0, [r3, #2]
    8caa:	0200      	lsls	r0, r0, #8
    8cac:	78da      	ldrb	r2, [r3, #3]
    8cae:	2380      	movs	r3, #128	; 0x80
    8cb0:	4302      	orrs	r2, r0
    8cb2:	1949      	adds	r1, r1, r5
    8cb4:	b289      	uxth	r1, r1
    8cb6:	00db      	lsls	r3, r3, #3
    8cb8:	a801      	add	r0, sp, #4
    8cba:	f7ff fc0f 	bl	84dc <flash_read_logic>
D:\Users\lihaifeng\Desktop\嵌入式\实验考核题目\1\Flash_KL36_20201030\Debug/srcc/isr.c:174
						for(i=0;i<len;i++)   //判空
    8cbe:	2300      	movs	r3, #0
D:\Users\lihaifeng\Desktop\嵌入式\实验考核题目\1\Flash_KL36_20201030\Debug/srcc/isr.c:174 (discriminator 1)
    8cc0:	429c      	cmp	r4, r3
    8cc2:	d9dc      	bls.n	8c7e <UART0_IRQHandler+0x21e>
D:\Users\lihaifeng\Desktop\嵌入式\实验考核题目\1\Flash_KL36_20201030\Debug/srcc/isr.c:176
						   if(flashRead[i]!=0xFF)
    8cc4:	aa01      	add	r2, sp, #4
    8cc6:	5cd2      	ldrb	r2, [r2, r3]
    8cc8:	2aff      	cmp	r2, #255	; 0xff
    8cca:	d101      	bne.n	8cd0 <UART0_IRQHandler+0x270>
D:\Users\lihaifeng\Desktop\嵌入式\实验考核题目\1\Flash_KL36_20201030\Debug/srcc/isr.c:174 (discriminator 2)
						for(i=0;i<len;i++)   //判空
    8ccc:	3301      	adds	r3, #1
    8cce:	e7f7      	b.n	8cc0 <UART0_IRQHandler+0x260>
D:\Users\lihaifeng\Desktop\嵌入式\实验考核题目\1\Flash_KL36_20201030\Debug/srcc/isr.c:178
							   mFlag=0;
    8cd0:	2300      	movs	r3, #0
    8cd2:	e7d5      	b.n	8c80 <UART0_IRQHandler+0x220>
D:\Users\lihaifeng\Desktop\嵌入式\实验考核题目\1\Flash_KL36_20201030\Debug/srcc/isr.c:183
							uart_send_string(UART_User," selected area is empty3\n");
    8cd4:	492e      	ldr	r1, [pc, #184]	; (8d90 <UART0_IRQHandler+0x330>)
    8cd6:	2000      	movs	r0, #0
    8cd8:	f7ff fe78 	bl	89cc <uart_send_string>
    8cdc:	e7db      	b.n	8c96 <UART0_IRQHandler+0x236>
D:\Users\lihaifeng\Desktop\嵌入式\实验考核题目\1\Flash_KL36_20201030\Debug/srcc/isr.c:195
		        	if(yushu >0)  //处理多余不足一个扇区的部分
    8cde:	2f00      	cmp	r7, #0
    8ce0:	d105      	bne.n	8cee <UART0_IRQHandler+0x28e>
D:\Users\lihaifeng\Desktop\嵌入式\实验考核题目\1\Flash_KL36_20201030\Debug/srcc/isr.c:220
		        	memset(gcRecvBuf,0xFF,len);
    8ce2:	0022      	movs	r2, r4
    8ce4:	21ff      	movs	r1, #255	; 0xff
    8ce6:	481c      	ldr	r0, [pc, #112]	; (8d58 <UART0_IRQHandler+0x2f8>)
    8ce8:	f000 fc93 	bl	9612 <memset>
D:\Users\lihaifeng\Desktop\嵌入式\实验考核题目\1\Flash_KL36_20201030\Debug/srcc/isr.c:222
		        	break;
    8cec:	e6c5      	b.n	8a7a <UART0_IRQHandler+0x1a>
D:\Users\lihaifeng\Desktop\嵌入式\实验考核题目\1\Flash_KL36_20201030\Debug/srcc/isr.c:197
		        		flash_read_logic(flashRead,gcRecvBuf[1]+count,(gcRecvBuf[2]<<8)|gcRecvBuf[3],yushu);
    8cee:	481a      	ldr	r0, [pc, #104]	; (8d58 <UART0_IRQHandler+0x2f8>)
    8cf0:	7841      	ldrb	r1, [r0, #1]
    8cf2:	7883      	ldrb	r3, [r0, #2]
    8cf4:	021b      	lsls	r3, r3, #8
    8cf6:	78c2      	ldrb	r2, [r0, #3]
    8cf8:	431a      	orrs	r2, r3
    8cfa:	1949      	adds	r1, r1, r5
    8cfc:	b289      	uxth	r1, r1
    8cfe:	003b      	movs	r3, r7
    8d00:	a801      	add	r0, sp, #4
    8d02:	f7ff fbeb 	bl	84dc <flash_read_logic>
D:\Users\lihaifeng\Desktop\嵌入式\实验考核题目\1\Flash_KL36_20201030\Debug/srcc/isr.c:199
						for(i=0;i<len;i++)   //判空
    8d06:	2300      	movs	r3, #0
D:\Users\lihaifeng\Desktop\嵌入式\实验考核题目\1\Flash_KL36_20201030\Debug/srcc/isr.c:199 (discriminator 1)
    8d08:	429c      	cmp	r4, r3
    8d0a:	d905      	bls.n	8d18 <UART0_IRQHandler+0x2b8>
D:\Users\lihaifeng\Desktop\嵌入式\实验考核题目\1\Flash_KL36_20201030\Debug/srcc/isr.c:201
						   if(flashRead[i]!=0xFF)
    8d0c:	aa01      	add	r2, sp, #4
    8d0e:	5cd2      	ldrb	r2, [r2, r3]
    8d10:	2aff      	cmp	r2, #255	; 0xff
    8d12:	d10d      	bne.n	8d30 <UART0_IRQHandler+0x2d0>
D:\Users\lihaifeng\Desktop\嵌入式\实验考核题目\1\Flash_KL36_20201030\Debug/srcc/isr.c:199 (discriminator 2)
						for(i=0;i<len;i++)   //判空
    8d14:	3301      	adds	r3, #1
    8d16:	e7f7      	b.n	8d08 <UART0_IRQHandler+0x2a8>
D:\Users\lihaifeng\Desktop\嵌入式\实验考核题目\1\Flash_KL36_20201030\Debug/srcc/isr.c:198
						mFlag=1;
    8d18:	2301      	movs	r3, #1
D:\Users\lihaifeng\Desktop\嵌入式\实验考核题目\1\Flash_KL36_20201030\Debug/srcc/isr.c:207
						if(mFlag==1)
    8d1a:	2b01      	cmp	r3, #1
    8d1c:	d00a      	beq.n	8d34 <UART0_IRQHandler+0x2d4>
D:\Users\lihaifeng\Desktop\嵌入式\实验考核题目\1\Flash_KL36_20201030\Debug/srcc/isr.c:211
							uart_sendN(UART_User,yushu,flashRead);
    8d1e:	aa01      	add	r2, sp, #4
    8d20:	0039      	movs	r1, r7
    8d22:	2000      	movs	r0, #0
    8d24:	f7ff fe38 	bl	8998 <uart_sendN>
D:\Users\lihaifeng\Desktop\嵌入式\实验考核题目\1\Flash_KL36_20201030\Debug/srcc/isr.c:212
							printf("2222222\n");
    8d28:	481a      	ldr	r0, [pc, #104]	; (8d94 <UART0_IRQHandler+0x334>)
    8d2a:	f000 fc57 	bl	95dc <myprintf>
    8d2e:	e7d8      	b.n	8ce2 <UART0_IRQHandler+0x282>
D:\Users\lihaifeng\Desktop\嵌入式\实验考核题目\1\Flash_KL36_20201030\Debug/srcc/isr.c:203
							   mFlag=0;
    8d30:	2300      	movs	r3, #0
    8d32:	e7f2      	b.n	8d1a <UART0_IRQHandler+0x2ba>
D:\Users\lihaifeng\Desktop\嵌入式\实验考核题目\1\Flash_KL36_20201030\Debug/srcc/isr.c:208
							uart_send_string(UART_User," selected area is empty3\n");
    8d34:	4916      	ldr	r1, [pc, #88]	; (8d90 <UART0_IRQHandler+0x330>)
    8d36:	2000      	movs	r0, #0
    8d38:	f7ff fe48 	bl	89cc <uart_send_string>
    8d3c:	e7d1      	b.n	8ce2 <UART0_IRQHandler+0x282>
D:\Users\lihaifeng\Desktop\嵌入式\实验考核题目\1\Flash_KL36_20201030\Debug/srcc/isr.c:225
					 uart_send_string(UART_User,"default test!\n");
    8d3e:	4916      	ldr	r1, [pc, #88]	; (8d98 <UART0_IRQHandler+0x338>)
    8d40:	2000      	movs	r0, #0
    8d42:	f7ff fe43 	bl	89cc <uart_send_string>
D:\Users\lihaifeng\Desktop\嵌入式\实验考核题目\1\Flash_KL36_20201030\Debug/srcc/isr.c:226
					 break;
    8d46:	e698      	b.n	8a7a <UART0_IRQHandler+0x1a>
    8d48:	fffff7f4 	.word	0xfffff7f4
    8d4c:	00000807 	.word	0x00000807
    8d50:	20000434 	.word	0x20000434
    8d54:	0000080c 	.word	0x0000080c
    8d58:	20000438 	.word	0x20000438
    8d5c:	00009930 	.word	0x00009930
    8d60:	000099b8 	.word	0x000099b8
    8d64:	20000439 	.word	0x20000439
    8d68:	000099c0 	.word	0x000099c0
    8d6c:	000099d8 	.word	0x000099d8
    8d70:	000099ec 	.word	0x000099ec
    8d74:	00009a08 	.word	0x00009a08
    8d78:	00009a24 	.word	0x00009a24
    8d7c:	00009a34 	.word	0x00009a34
    8d80:	00009a44 	.word	0x00009a44
    8d84:	00009a54 	.word	0x00009a54
    8d88:	00009a88 	.word	0x00009a88
    8d8c:	00009a64 	.word	0x00009a64
    8d90:	00009a6c 	.word	0x00009a6c
    8d94:	00009a94 	.word	0x00009a94
    8d98:	00009aa0 	.word	0x00009aa0

00008d9c <SecAdd1>:
SecAdd1():
D:\Users\lihaifeng\Desktop\嵌入式\实验考核题目\1\Flash_KL36_20201030\Debug/srcc/isr.c:270
//参数说明：*p:为指向一个时分秒数组p[3]
//功能概要：秒单元+1，并处理时分单元（00:00:00-23:59:59)
//===========================================================================
void SecAdd1(uint8_t *p)
{
	*(p+2)+=1;         //秒+1
    8d9c:	7883      	ldrb	r3, [r0, #2]
    8d9e:	3301      	adds	r3, #1
    8da0:	b2db      	uxtb	r3, r3
    8da2:	7083      	strb	r3, [r0, #2]
D:\Users\lihaifeng\Desktop\嵌入式\实验考核题目\1\Flash_KL36_20201030\Debug/srcc/isr.c:271
	if(*(p+2)>=60)     //秒溢出
    8da4:	2b3b      	cmp	r3, #59	; 0x3b
    8da6:	d911      	bls.n	8dcc <SecAdd1+0x30>
D:\Users\lihaifeng\Desktop\嵌入式\实验考核题目\1\Flash_KL36_20201030\Debug/srcc/isr.c:273
	{
		*(p+2)=0;       //清秒
    8da8:	2300      	movs	r3, #0
    8daa:	7083      	strb	r3, [r0, #2]
D:\Users\lihaifeng\Desktop\嵌入式\实验考核题目\1\Flash_KL36_20201030\Debug/srcc/isr.c:274
		*(p+1)+=1;      //分+1
    8dac:	7843      	ldrb	r3, [r0, #1]
    8dae:	3301      	adds	r3, #1
    8db0:	b2db      	uxtb	r3, r3
    8db2:	7043      	strb	r3, [r0, #1]
D:\Users\lihaifeng\Desktop\嵌入式\实验考核题目\1\Flash_KL36_20201030\Debug/srcc/isr.c:275
		if(*(p+1)>=60)  //分溢出
    8db4:	2b3b      	cmp	r3, #59	; 0x3b
    8db6:	d909      	bls.n	8dcc <SecAdd1+0x30>
D:\Users\lihaifeng\Desktop\嵌入式\实验考核题目\1\Flash_KL36_20201030\Debug/srcc/isr.c:277
		{
			*(p+1)=0;    //清分
    8db8:	2300      	movs	r3, #0
    8dba:	7043      	strb	r3, [r0, #1]
D:\Users\lihaifeng\Desktop\嵌入式\实验考核题目\1\Flash_KL36_20201030\Debug/srcc/isr.c:278
			*p+=1;       //时+1
    8dbc:	7803      	ldrb	r3, [r0, #0]
    8dbe:	3301      	adds	r3, #1
    8dc0:	b2db      	uxtb	r3, r3
    8dc2:	7003      	strb	r3, [r0, #0]
D:\Users\lihaifeng\Desktop\嵌入式\实验考核题目\1\Flash_KL36_20201030\Debug/srcc/isr.c:279
			if(*p>=24)   //时溢出
    8dc4:	2b17      	cmp	r3, #23
    8dc6:	d901      	bls.n	8dcc <SecAdd1+0x30>
D:\Users\lihaifeng\Desktop\嵌入式\实验考核题目\1\Flash_KL36_20201030\Debug/srcc/isr.c:281
			{
				*p=0;      //清时
    8dc8:	2300      	movs	r3, #0
    8dca:	7003      	strb	r3, [r0, #0]
D:\Users\lihaifeng\Desktop\嵌入式\实验考核题目\1\Flash_KL36_20201030\Debug/srcc/isr.c:285
			}
		}
	}
}
    8dcc:	4770      	bx	lr
	...

00008dd0 <SysTick_Handler>:
SysTick_Handler():
D:\Users\lihaifeng\Desktop\嵌入式\实验考核题目\1\Flash_KL36_20201030\Debug/srcc/isr.c:249
{
    8dd0:	b510      	push	{r4, lr}
D:\Users\lihaifeng\Desktop\嵌入式\实验考核题目\1\Flash_KL36_20201030\Debug/srcc/isr.c:251
	SysTickCount++;    //Tick单元+1
    8dd2:	4c08      	ldr	r4, [pc, #32]	; (8df4 <SysTick_Handler+0x24>)
    8dd4:	7823      	ldrb	r3, [r4, #0]
    8dd6:	3301      	adds	r3, #1
    8dd8:	7023      	strb	r3, [r4, #0]
D:\Users\lihaifeng\Desktop\嵌入式\实验考核题目\1\Flash_KL36_20201030\Debug/srcc/isr.c:252
	wdog_feed();      //看门狗“喂狗”
    8dda:	f7ff fcb3 	bl	8744 <wdog_feed>
D:\Users\lihaifeng\Desktop\嵌入式\实验考核题目\1\Flash_KL36_20201030\Debug/srcc/isr.c:253
	if (SysTickCount >= 100)
    8dde:	7823      	ldrb	r3, [r4, #0]
    8de0:	2b63      	cmp	r3, #99	; 0x63
    8de2:	d800      	bhi.n	8de6 <SysTick_Handler+0x16>
D:\Users\lihaifeng\Desktop\嵌入式\实验考核题目\1\Flash_KL36_20201030\Debug/srcc/isr.c:258
}
    8de4:	bd10      	pop	{r4, pc}
D:\Users\lihaifeng\Desktop\嵌入式\实验考核题目\1\Flash_KL36_20201030\Debug/srcc/isr.c:255
		SysTickCount = 0;
    8de6:	4b03      	ldr	r3, [pc, #12]	; (8df4 <SysTick_Handler+0x24>)
    8de8:	2200      	movs	r2, #0
    8dea:	701a      	strb	r2, [r3, #0]
D:\Users\lihaifeng\Desktop\嵌入式\实验考核题目\1\Flash_KL36_20201030\Debug/srcc/isr.c:256
		SecAdd1(gTime);
    8dec:	4802      	ldr	r0, [pc, #8]	; (8df8 <SysTick_Handler+0x28>)
    8dee:	f7ff ffd5 	bl	8d9c <SecAdd1>
D:\Users\lihaifeng\Desktop\嵌入式\实验考核题目\1\Flash_KL36_20201030\Debug/srcc/isr.c:258
}
    8df2:	e7f7      	b.n	8de4 <SysTick_Handler+0x14>
    8df4:	20000428 	.word	0x20000428
    8df8:	2000042c 	.word	0x2000042c

00008dfc <printk_putc>:
printk_putc():
D:\Users\lihaifeng\Desktop\嵌入式\实验考核题目\1\Flash_KL36_20201030\Debug/srcc/printf.c:26
//功能概要：通过串口打出一个字符
//参数说明：data:数据：通过串口发送的一字节数据
//函数返回：无
//======================================================================
static void printk_putc(int c, int *count, PRINTK_INFO *info)
{
    8dfc:	b510      	push	{r4, lr}
    8dfe:	000c      	movs	r4, r1
D:\Users\lihaifeng\Desktop\嵌入式\实验考核题目\1\Flash_KL36_20201030\Debug/srcc/printf.c:27
	switch (info->dest) {
    8e00:	6813      	ldr	r3, [r2, #0]
    8e02:	2b01      	cmp	r3, #1
    8e04:	d005      	beq.n	8e12 <printk_putc+0x16>
    8e06:	2b02      	cmp	r3, #2
    8e08:	d007      	beq.n	8e1a <printk_putc+0x1e>
D:\Users\lihaifeng\Desktop\嵌入式\实验考核题目\1\Flash_KL36_20201030\Debug/srcc/printf.c:38
		++(info->loc);
		break;
	default:
		break;
	}
	*count += 1;
    8e0a:	6823      	ldr	r3, [r4, #0]
    8e0c:	3301      	adds	r3, #1
    8e0e:	6023      	str	r3, [r4, #0]
D:\Users\lihaifeng\Desktop\嵌入式\实验考核题目\1\Flash_KL36_20201030\Debug/srcc/printf.c:39
}
    8e10:	bd10      	pop	{r4, pc}
D:\Users\lihaifeng\Desktop\嵌入式\实验考核题目\1\Flash_KL36_20201030\Debug/srcc/printf.c:29
		info->func((char) c);
    8e12:	6853      	ldr	r3, [r2, #4]
    8e14:	b240      	sxtb	r0, r0
    8e16:	4798      	blx	r3
D:\Users\lihaifeng\Desktop\嵌入式\实验考核题目\1\Flash_KL36_20201030\Debug/srcc/printf.c:30
		break;
    8e18:	e7f7      	b.n	8e0a <printk_putc+0xe>
D:\Users\lihaifeng\Desktop\嵌入式\实验考核题目\1\Flash_KL36_20201030\Debug/srcc/printf.c:32
		*(info->loc) = (unsigned char) c;
    8e1a:	6893      	ldr	r3, [r2, #8]
    8e1c:	7018      	strb	r0, [r3, #0]
D:\Users\lihaifeng\Desktop\嵌入式\实验考核题目\1\Flash_KL36_20201030\Debug/srcc/printf.c:33
		++(info->loc);
    8e1e:	6893      	ldr	r3, [r2, #8]
    8e20:	3301      	adds	r3, #1
    8e22:	6093      	str	r3, [r2, #8]
D:\Users\lihaifeng\Desktop\嵌入式\实验考核题目\1\Flash_KL36_20201030\Debug/srcc/printf.c:34
		break;
    8e24:	e7f1      	b.n	8e0a <printk_putc+0xe>

00008e26 <printk_mknumstr>:
printk_mknumstr():
D:\Users\lihaifeng\Desktop\嵌入式\实验考核题目\1\Flash_KL36_20201030\Debug/srcc/printf.c:126
//       neg:有无符号:判断数据时有符号还是无符号整形
//       radix:格式选择:确定输出格式例如：十进制或十六进制...
//函数返回：无
//======================================================================
static int printk_mknumstr(char *numstr, void *nump, int neg, int radix)
{
    8e26:	b5f0      	push	{r4, r5, r6, r7, lr}
    8e28:	b083      	sub	sp, #12
    8e2a:	0016      	movs	r6, r2
    8e2c:	001d      	movs	r5, r3
D:\Users\lihaifeng\Desktop\嵌入式\实验考核题目\1\Flash_KL36_20201030\Debug/srcc/printf.c:134
	int nlen;
	char *nstrp;

	nlen = 0;
	nstrp = numstr;
	*nstrp++ = '\0';
    8e2e:	1c47      	adds	r7, r0, #1
    8e30:	2300      	movs	r3, #0
    8e32:	7003      	strb	r3, [r0, #0]
D:\Users\lihaifeng\Desktop\嵌入式\实验考核题目\1\Flash_KL36_20201030\Debug/srcc/printf.c:136

	if (neg) {
    8e34:	2a00      	cmp	r2, #0
    8e36:	d01f      	beq.n	8e78 <printk_mknumstr+0x52>
D:\Users\lihaifeng\Desktop\嵌入式\实验考核题目\1\Flash_KL36_20201030\Debug/srcc/printf.c:137
		a = *(int *) nump;
    8e38:	680c      	ldr	r4, [r1, #0]
D:\Users\lihaifeng\Desktop\嵌入式\实验考核题目\1\Flash_KL36_20201030\Debug/srcc/printf.c:138
		if (a == 0) {
    8e3a:	2c00      	cmp	r4, #0
    8e3c:	d001      	beq.n	8e42 <printk_mknumstr+0x1c>
D:\Users\lihaifeng\Desktop\嵌入式\实验考核题目\1\Flash_KL36_20201030\Debug/srcc/printf.c:132
	nlen = 0;
    8e3e:	2600      	movs	r6, #0
    8e40:	e00b      	b.n	8e5a <printk_mknumstr+0x34>
D:\Users\lihaifeng\Desktop\嵌入式\实验考核题目\1\Flash_KL36_20201030\Debug/srcc/printf.c:139
			*nstrp = '0';
    8e42:	3330      	adds	r3, #48	; 0x30
    8e44:	7043      	strb	r3, [r0, #1]
D:\Users\lihaifeng\Desktop\嵌入式\实验考核题目\1\Flash_KL36_20201030\Debug/srcc/printf.c:140
			++nlen;
    8e46:	2601      	movs	r6, #1
D:\Users\lihaifeng\Desktop\嵌入式\实验考核题目\1\Flash_KL36_20201030\Debug/srcc/printf.c:176
			*nstrp++ = (char) uc;
			++nlen;
		}
	}
	done: return nlen;
}
    8e48:	0030      	movs	r0, r6
    8e4a:	b003      	add	sp, #12
    8e4c:	bdf0      	pop	{r4, r5, r6, r7, pc}
D:\Users\lihaifeng\Desktop\嵌入式\实验考核题目\1\Flash_KL36_20201030\Debug/srcc/printf.c:147
				c = ~c + 1 + '0';
    8e4e:	2330      	movs	r3, #48	; 0x30
    8e50:	1a59      	subs	r1, r3, r1
D:\Users\lihaifeng\Desktop\嵌入式\实验考核题目\1\Flash_KL36_20201030\Debug/srcc/printf.c:152
			*nstrp++ = (char) c;
    8e52:	7039      	strb	r1, [r7, #0]
D:\Users\lihaifeng\Desktop\嵌入式\实验考核题目\1\Flash_KL36_20201030\Debug/srcc/printf.c:153
			++nlen;
    8e54:	3601      	adds	r6, #1
D:\Users\lihaifeng\Desktop\嵌入式\实验考核题目\1\Flash_KL36_20201030\Debug/srcc/printf.c:152
			*nstrp++ = (char) c;
    8e56:	3701      	adds	r7, #1
D:\Users\lihaifeng\Desktop\嵌入式\实验考核题目\1\Flash_KL36_20201030\Debug/srcc/printf.c:151
			a = b;
    8e58:	9c01      	ldr	r4, [sp, #4]
D:\Users\lihaifeng\Desktop\嵌入式\实验考核题目\1\Flash_KL36_20201030\Debug/srcc/printf.c:143
		while (a != 0) {
    8e5a:	2c00      	cmp	r4, #0
    8e5c:	d0f4      	beq.n	8e48 <printk_mknumstr+0x22>
D:\Users\lihaifeng\Desktop\嵌入式\实验考核题目\1\Flash_KL36_20201030\Debug/srcc/printf.c:144
			b = (int) a / (int) radix;
    8e5e:	0029      	movs	r1, r5
    8e60:	0020      	movs	r0, r4
    8e62:	f7fd ffab 	bl	6dbc <__divsi3>
    8e66:	9001      	str	r0, [sp, #4]
    8e68:	0029      	movs	r1, r5
    8e6a:	0020      	movs	r0, r4
    8e6c:	f7fe f88c 	bl	6f88 <__aeabi_idivmod>
D:\Users\lihaifeng\Desktop\嵌入式\实验考核题目\1\Flash_KL36_20201030\Debug/srcc/printf.c:146
			if (c < 0) {
    8e70:	2900      	cmp	r1, #0
    8e72:	dbec      	blt.n	8e4e <printk_mknumstr+0x28>
D:\Users\lihaifeng\Desktop\嵌入式\实验考核题目\1\Flash_KL36_20201030\Debug/srcc/printf.c:149
				c = c + '0';
    8e74:	3130      	adds	r1, #48	; 0x30
    8e76:	e7ec      	b.n	8e52 <printk_mknumstr+0x2c>
D:\Users\lihaifeng\Desktop\嵌入式\实验考核题目\1\Flash_KL36_20201030\Debug/srcc/printf.c:156
		ua = *(unsigned int *) nump;
    8e78:	680c      	ldr	r4, [r1, #0]
D:\Users\lihaifeng\Desktop\嵌入式\实验考核题目\1\Flash_KL36_20201030\Debug/srcc/printf.c:157
		if (ua == 0) {
    8e7a:	2c00      	cmp	r4, #0
    8e7c:	d108      	bne.n	8e90 <printk_mknumstr+0x6a>
D:\Users\lihaifeng\Desktop\嵌入式\实验考核题目\1\Flash_KL36_20201030\Debug/srcc/printf.c:158
			*nstrp = '0';
    8e7e:	2330      	movs	r3, #48	; 0x30
    8e80:	7043      	strb	r3, [r0, #1]
D:\Users\lihaifeng\Desktop\嵌入式\实验考核题目\1\Flash_KL36_20201030\Debug/srcc/printf.c:159
			++nlen;
    8e82:	2601      	movs	r6, #1
D:\Users\lihaifeng\Desktop\嵌入式\实验考核题目\1\Flash_KL36_20201030\Debug/srcc/printf.c:160
			goto done;
    8e84:	e7e0      	b.n	8e48 <printk_mknumstr+0x22>
D:\Users\lihaifeng\Desktop\嵌入式\实验考核题目\1\Flash_KL36_20201030\Debug/srcc/printf.c:168
				uc = uc - 10 + 'A';
    8e86:	3437      	adds	r4, #55	; 0x37
D:\Users\lihaifeng\Desktop\嵌入式\实验考核题目\1\Flash_KL36_20201030\Debug/srcc/printf.c:171
			*nstrp++ = (char) uc;
    8e88:	703c      	strb	r4, [r7, #0]
D:\Users\lihaifeng\Desktop\嵌入式\实验考核题目\1\Flash_KL36_20201030\Debug/srcc/printf.c:172
			++nlen;
    8e8a:	3601      	adds	r6, #1
D:\Users\lihaifeng\Desktop\嵌入式\实验考核题目\1\Flash_KL36_20201030\Debug/srcc/printf.c:171
			*nstrp++ = (char) uc;
    8e8c:	3701      	adds	r7, #1
D:\Users\lihaifeng\Desktop\嵌入式\实验考核题目\1\Flash_KL36_20201030\Debug/srcc/printf.c:170
			ua = ub;
    8e8e:	0004      	movs	r4, r0
D:\Users\lihaifeng\Desktop\嵌入式\实验考核题目\1\Flash_KL36_20201030\Debug/srcc/printf.c:162
		while (ua != 0) {
    8e90:	2c00      	cmp	r4, #0
    8e92:	d0d9      	beq.n	8e48 <printk_mknumstr+0x22>
D:\Users\lihaifeng\Desktop\嵌入式\实验考核题目\1\Flash_KL36_20201030\Debug/srcc/printf.c:163
			ub = (unsigned int) ua / (unsigned int) radix;
    8e94:	0029      	movs	r1, r5
    8e96:	0020      	movs	r0, r4
    8e98:	f7fd ff06 	bl	6ca8 <__udivsi3>
D:\Users\lihaifeng\Desktop\嵌入式\实验考核题目\1\Flash_KL36_20201030\Debug/srcc/printf.c:164
			uc = (unsigned int) ua - ((unsigned int) ub * (unsigned int) radix);
    8e9c:	0003      	movs	r3, r0
    8e9e:	436b      	muls	r3, r5
    8ea0:	1ae4      	subs	r4, r4, r3
D:\Users\lihaifeng\Desktop\嵌入式\实验考核题目\1\Flash_KL36_20201030\Debug/srcc/printf.c:165
			if (uc < 10) {
    8ea2:	2c09      	cmp	r4, #9
    8ea4:	d8ef      	bhi.n	8e86 <printk_mknumstr+0x60>
D:\Users\lihaifeng\Desktop\嵌入式\实验考核题目\1\Flash_KL36_20201030\Debug/srcc/printf.c:166
				uc = uc + '0';
    8ea6:	3430      	adds	r4, #48	; 0x30
    8ea8:	e7ee      	b.n	8e88 <printk_mknumstr+0x62>

00008eaa <printk_pad_zero>:
printk_pad_zero():
D:\Users\lihaifeng\Desktop\嵌入式\实验考核题目\1\Flash_KL36_20201030\Debug/srcc/printf.c:179
/********************************************************************/
static void printk_pad_zero(int curlen, int field_width, int *count,
		PRINTK_INFO *info) {
    8eaa:	b5f8      	push	{r3, r4, r5, r6, r7, lr}
    8eac:	0004      	movs	r4, r0
    8eae:	000d      	movs	r5, r1
    8eb0:	0017      	movs	r7, r2
    8eb2:	001e      	movs	r6, r3
D:\Users\lihaifeng\Desktop\嵌入式\实验考核题目\1\Flash_KL36_20201030\Debug/srcc/printf.c:182
	int i;

	for (i = curlen; i < field_width; i++) {
    8eb4:	e005      	b.n	8ec2 <printk_pad_zero+0x18>
D:\Users\lihaifeng\Desktop\嵌入式\实验考核题目\1\Flash_KL36_20201030\Debug/srcc/printf.c:183 (discriminator 3)
		printk_putc('0', count, info);
    8eb6:	0032      	movs	r2, r6
    8eb8:	0039      	movs	r1, r7
    8eba:	2030      	movs	r0, #48	; 0x30
    8ebc:	f7ff ff9e 	bl	8dfc <printk_putc>
D:\Users\lihaifeng\Desktop\嵌入式\实验考核题目\1\Flash_KL36_20201030\Debug/srcc/printf.c:182 (discriminator 3)
	for (i = curlen; i < field_width; i++) {
    8ec0:	3401      	adds	r4, #1
D:\Users\lihaifeng\Desktop\嵌入式\实验考核题目\1\Flash_KL36_20201030\Debug/srcc/printf.c:182 (discriminator 1)
    8ec2:	42ac      	cmp	r4, r5
    8ec4:	dbf7      	blt.n	8eb6 <printk_pad_zero+0xc>
D:\Users\lihaifeng\Desktop\嵌入式\实验考核题目\1\Flash_KL36_20201030\Debug/srcc/printf.c:185
	}
}
    8ec6:	bdf8      	pop	{r3, r4, r5, r6, r7, pc}

00008ec8 <printk_pad_space>:
printk_pad_space():
D:\Users\lihaifeng\Desktop\嵌入式\实验考核题目\1\Flash_KL36_20201030\Debug/srcc/printf.c:189

/********************************************************************/
static void printk_pad_space(int curlen, int field_width, int *count,
		PRINTK_INFO *info) {
    8ec8:	b5f8      	push	{r3, r4, r5, r6, r7, lr}
    8eca:	0004      	movs	r4, r0
    8ecc:	000d      	movs	r5, r1
    8ece:	0017      	movs	r7, r2
    8ed0:	001e      	movs	r6, r3
D:\Users\lihaifeng\Desktop\嵌入式\实验考核题目\1\Flash_KL36_20201030\Debug/srcc/printf.c:192
	int i;

	for (i = curlen; i < field_width; i++) {
    8ed2:	e005      	b.n	8ee0 <printk_pad_space+0x18>
D:\Users\lihaifeng\Desktop\嵌入式\实验考核题目\1\Flash_KL36_20201030\Debug/srcc/printf.c:193 (discriminator 3)
		printk_putc(' ', count, info);
    8ed4:	0032      	movs	r2, r6
    8ed6:	0039      	movs	r1, r7
    8ed8:	2020      	movs	r0, #32
    8eda:	f7ff ff8f 	bl	8dfc <printk_putc>
D:\Users\lihaifeng\Desktop\嵌入式\实验考核题目\1\Flash_KL36_20201030\Debug/srcc/printf.c:192 (discriminator 3)
	for (i = curlen; i < field_width; i++) {
    8ede:	3401      	adds	r4, #1
D:\Users\lihaifeng\Desktop\嵌入式\实验考核题目\1\Flash_KL36_20201030\Debug/srcc/printf.c:192 (discriminator 1)
    8ee0:	42ac      	cmp	r4, r5
    8ee2:	dbf7      	blt.n	8ed4 <printk_pad_space+0xc>
D:\Users\lihaifeng\Desktop\嵌入式\实验考核题目\1\Flash_KL36_20201030\Debug/srcc/printf.c:195
	}
}
    8ee4:	bdf8      	pop	{r3, r4, r5, r6, r7, pc}

00008ee6 <out_char>:
out_char():
D:\Users\lihaifeng\Desktop\嵌入式\实验考核题目\1\Flash_KL36_20201030\Debug/srcc/printf.c:17
void out_char(char data) {
    8ee6:	b510      	push	{r4, lr}
D:\Users\lihaifeng\Desktop\嵌入式\实验考核题目\1\Flash_KL36_20201030\Debug/srcc/printf.c:18
	uart_send1(UART_printf, data);
    8ee8:	b2c1      	uxtb	r1, r0
    8eea:	2002      	movs	r0, #2
    8eec:	f7ff fd26 	bl	893c <uart_send1>
D:\Users\lihaifeng\Desktop\嵌入式\实验考核题目\1\Flash_KL36_20201030\Debug/srcc/printf.c:19
}
    8ef0:	bd10      	pop	{r4, pc}
	...

00008ef4 <printk_mkfloatstr>:
printk_mkfloatstr():
D:\Users\lihaifeng\Desktop\嵌入式\实验考核题目\1\Flash_KL36_20201030\Debug/srcc/printf.c:47
{
    8ef4:	b5f0      	push	{r4, r5, r6, r7, lr}
    8ef6:	46d6      	mov	lr, sl
    8ef8:	464f      	mov	r7, r9
    8efa:	b580      	push	{r7, lr}
    8efc:	b09b      	sub	sp, #108	; 0x6c
    8efe:	0004      	movs	r4, r0
    8f00:	4689      	mov	r9, r1
    8f02:	0015      	movs	r5, r2
D:\Users\lihaifeng\Desktop\嵌入式\实验考核题目\1\Flash_KL36_20201030\Debug/srcc/printf.c:48
	uint32_t p,i,j,k,a[5]={0},b[19]={0};
    8f04:	2214      	movs	r2, #20
    8f06:	2100      	movs	r1, #0
    8f08:	a815      	add	r0, sp, #84	; 0x54
    8f0a:	f000 fb82 	bl	9612 <memset>
    8f0e:	224c      	movs	r2, #76	; 0x4c
    8f10:	2100      	movs	r1, #0
    8f12:	a802      	add	r0, sp, #8
    8f14:	f000 fb7d 	bl	9612 <memset>
D:\Users\lihaifeng\Desktop\嵌入式\实验考核题目\1\Flash_KL36_20201030\Debug/srcc/printf.c:55
	p=(uint32_t)*f;//整数部分
    8f18:	6826      	ldr	r6, [r4, #0]
    8f1a:	6867      	ldr	r7, [r4, #4]
    8f1c:	0030      	movs	r0, r6
    8f1e:	0039      	movs	r1, r7
    8f20:	f7fe f896 	bl	7050 <__aeabi_d2uiz>
    8f24:	4682      	mov	sl, r0
D:\Users\lihaifeng\Desktop\嵌入式\实验考核题目\1\Flash_KL36_20201030\Debug/srcc/printf.c:56
	tempf=(*f-p);
    8f26:	f7ff f889 	bl	803c <__aeabi_ui2d>
    8f2a:	0002      	movs	r2, r0
    8f2c:	000b      	movs	r3, r1
    8f2e:	0030      	movs	r0, r6
    8f30:	0039      	movs	r1, r7
    8f32:	f7fe fd05 	bl	7940 <__aeabi_dsub>
    8f36:	0006      	movs	r6, r0
    8f38:	000f      	movs	r7, r1
D:\Users\lihaifeng\Desktop\嵌入式\实验考核题目\1\Flash_KL36_20201030\Debug/srcc/printf.c:57
	if(precision_width==0)
    8f3a:	2d00      	cmp	r5, #0
    8f3c:	d10e      	bne.n	8f5c <printk_mkfloatstr+0x68>
D:\Users\lihaifeng\Desktop\嵌入式\实验考核题目\1\Flash_KL36_20201030\Debug/srcc/printf.c:58
	q=(*f-p)*100000000000000000;//小数部分
    8f3e:	4a4b      	ldr	r2, [pc, #300]	; (906c <printk_mkfloatstr+0x178>)
    8f40:	4b4b      	ldr	r3, [pc, #300]	; (9070 <printk_mkfloatstr+0x17c>)
    8f42:	f7fe fa8b 	bl	745c <__aeabi_dmul>
    8f46:	f7fe f8a1 	bl	708c <__aeabi_d2ulz>
    8f4a:	0004      	movs	r4, r0
    8f4c:	9101      	str	r1, [sp, #4]
D:\Users\lihaifeng\Desktop\嵌入式\实验考核题目\1\Flash_KL36_20201030\Debug/srcc/printf.c:66
	k=0;
    8f4e:	2500      	movs	r5, #0
D:\Users\lihaifeng\Desktop\嵌入式\实验考核题目\1\Flash_KL36_20201030\Debug/srcc/printf.c:67
	while(m<1)
    8f50:	e015      	b.n	8f7e <printk_mkfloatstr+0x8a>
D:\Users\lihaifeng\Desktop\嵌入式\实验考核题目\1\Flash_KL36_20201030\Debug/srcc/printf.c:62
		tempf*=10;
    8f52:	2200      	movs	r2, #0
    8f54:	4b47      	ldr	r3, [pc, #284]	; (9074 <printk_mkfloatstr+0x180>)
    8f56:	f7fe fa81 	bl	745c <__aeabi_dmul>
D:\Users\lihaifeng\Desktop\嵌入式\实验考核题目\1\Flash_KL36_20201030\Debug/srcc/printf.c:61
		while(precision_width--)
    8f5a:	0025      	movs	r5, r4
    8f5c:	1e6c      	subs	r4, r5, #1
    8f5e:	2d00      	cmp	r5, #0
    8f60:	d1f7      	bne.n	8f52 <printk_mkfloatstr+0x5e>
D:\Users\lihaifeng\Desktop\嵌入式\实验考核题目\1\Flash_KL36_20201030\Debug/srcc/printf.c:63
		q=tempf;
    8f62:	f7fe f893 	bl	708c <__aeabi_d2ulz>
    8f66:	0004      	movs	r4, r0
    8f68:	9101      	str	r1, [sp, #4]
    8f6a:	e7f0      	b.n	8f4e <printk_mkfloatstr+0x5a>
D:\Users\lihaifeng\Desktop\嵌入式\实验考核题目\1\Flash_KL36_20201030\Debug/srcc/printf.c:69
		m=m*10;
    8f6c:	2200      	movs	r2, #0
    8f6e:	4b41      	ldr	r3, [pc, #260]	; (9074 <printk_mkfloatstr+0x180>)
    8f70:	0030      	movs	r0, r6
    8f72:	0039      	movs	r1, r7
    8f74:	f7fe fa72 	bl	745c <__aeabi_dmul>
    8f78:	0006      	movs	r6, r0
    8f7a:	000f      	movs	r7, r1
D:\Users\lihaifeng\Desktop\嵌入式\实验考核题目\1\Flash_KL36_20201030\Debug/srcc/printf.c:70
		k++;
    8f7c:	3501      	adds	r5, #1
D:\Users\lihaifeng\Desktop\嵌入式\实验考核题目\1\Flash_KL36_20201030\Debug/srcc/printf.c:67
	while(m<1)
    8f7e:	2200      	movs	r2, #0
    8f80:	4b3d      	ldr	r3, [pc, #244]	; (9078 <printk_mkfloatstr+0x184>)
    8f82:	0030      	movs	r0, r6
    8f84:	0039      	movs	r1, r7
    8f86:	f7fe f81b 	bl	6fc0 <__aeabi_dcmplt>
    8f8a:	2800      	cmp	r0, #0
    8f8c:	d1ee      	bne.n	8f6c <printk_mkfloatstr+0x78>
D:\Users\lihaifeng\Desktop\嵌入式\实验考核题目\1\Flash_KL36_20201030\Debug/srcc/printf.c:72
	k--;          //记录小数点后到第一位不为零的小数之前 有多少个0.
    8f8e:	1e6f      	subs	r7, r5, #1
D:\Users\lihaifeng\Desktop\嵌入式\实验考核题目\1\Flash_KL36_20201030\Debug/srcc/printf.c:75
	if(0==p)     //整数部分为0
    8f90:	4653      	mov	r3, sl
    8f92:	2b00      	cmp	r3, #0
    8f94:	d121      	bne.n	8fda <printk_mkfloatstr+0xe6>
D:\Users\lihaifeng\Desktop\嵌入式\实验考核题目\1\Flash_KL36_20201030\Debug/srcc/printf.c:76
		c[i++]='0';
    8f96:	3330      	adds	r3, #48	; 0x30
    8f98:	464a      	mov	r2, r9
    8f9a:	7013      	strb	r3, [r2, #0]
    8f9c:	3b2f      	subs	r3, #47	; 0x2f
    8f9e:	469a      	mov	sl, r3
D:\Users\lihaifeng\Desktop\嵌入式\实验考核题目\1\Flash_KL36_20201030\Debug/srcc/printf.c:91
	c[i++]='.';     //小数点
    8fa0:	4653      	mov	r3, sl
    8fa2:	1c5d      	adds	r5, r3, #1
    8fa4:	232e      	movs	r3, #46	; 0x2e
    8fa6:	464a      	mov	r2, r9
    8fa8:	4651      	mov	r1, sl
    8faa:	5453      	strb	r3, [r2, r1]
D:\Users\lihaifeng\Desktop\嵌入式\实验考核题目\1\Flash_KL36_20201030\Debug/srcc/printf.c:92
	if(0==q)        //小数部分为0
    8fac:	9b01      	ldr	r3, [sp, #4]
    8fae:	4323      	orrs	r3, r4
    8fb0:	d023      	beq.n	8ffa <printk_mkfloatstr+0x106>
D:\Users\lihaifeng\Desktop\嵌入式\实验考核题目\1\Flash_KL36_20201030\Debug/srcc/printf.c:96
		j=0;
    8fb2:	2600      	movs	r6, #0
    8fb4:	e039      	b.n	902a <printk_mkfloatstr+0x136>
D:\Users\lihaifeng\Desktop\嵌入式\实验考核题目\1\Flash_KL36_20201030\Debug/srcc/printf.c:82
			a[j++]=p%10;
    8fb6:	1c75      	adds	r5, r6, #1
    8fb8:	210a      	movs	r1, #10
    8fba:	4650      	mov	r0, sl
    8fbc:	f7fd fefa 	bl	6db4 <__aeabi_uidivmod>
    8fc0:	00b6      	lsls	r6, r6, #2
    8fc2:	ab15      	add	r3, sp, #84	; 0x54
    8fc4:	50f1      	str	r1, [r6, r3]
D:\Users\lihaifeng\Desktop\嵌入式\实验考核题目\1\Flash_KL36_20201030\Debug/srcc/printf.c:83
			p/=10;
    8fc6:	210a      	movs	r1, #10
    8fc8:	4650      	mov	r0, sl
    8fca:	f7fd fe6d 	bl	6ca8 <__udivsi3>
    8fce:	4682      	mov	sl, r0
D:\Users\lihaifeng\Desktop\嵌入式\实验考核题目\1\Flash_KL36_20201030\Debug/srcc/printf.c:82
			a[j++]=p%10;
    8fd0:	002e      	movs	r6, r5
D:\Users\lihaifeng\Desktop\嵌入式\实验考核题目\1\Flash_KL36_20201030\Debug/srcc/printf.c:80
		while(p!=0)//倒序的数字
    8fd2:	4653      	mov	r3, sl
    8fd4:	2b00      	cmp	r3, #0
    8fd6:	d1ee      	bne.n	8fb6 <printk_mkfloatstr+0xc2>
    8fd8:	e00c      	b.n	8ff4 <printk_mkfloatstr+0x100>
D:\Users\lihaifeng\Desktop\嵌入式\实验考核题目\1\Flash_KL36_20201030\Debug/srcc/printf.c:79
		j=0;
    8fda:	2600      	movs	r6, #0
    8fdc:	e7f9      	b.n	8fd2 <printk_mkfloatstr+0xde>
D:\Users\lihaifeng\Desktop\嵌入式\实验考核题目\1\Flash_KL36_20201030\Debug/srcc/printf.c:87
			c[i++]=a[j-1]+'0';
    8fde:	3e01      	subs	r6, #1
    8fe0:	00b2      	lsls	r2, r6, #2
    8fe2:	ab15      	add	r3, sp, #84	; 0x54
    8fe4:	58d3      	ldr	r3, [r2, r3]
    8fe6:	3330      	adds	r3, #48	; 0x30
    8fe8:	464a      	mov	r2, r9
    8fea:	4651      	mov	r1, sl
    8fec:	5453      	strb	r3, [r2, r1]
    8fee:	2301      	movs	r3, #1
    8ff0:	469c      	mov	ip, r3
    8ff2:	44e2      	add	sl, ip
D:\Users\lihaifeng\Desktop\嵌入式\实验考核题目\1\Flash_KL36_20201030\Debug/srcc/printf.c:85
		while(j>0)//将倒序数字转为正序，并转换为对应的字符形式
    8ff4:	2e00      	cmp	r6, #0
    8ff6:	d1f2      	bne.n	8fde <printk_mkfloatstr+0xea>
    8ff8:	e7d2      	b.n	8fa0 <printk_mkfloatstr+0xac>
D:\Users\lihaifeng\Desktop\嵌入式\实验考核题目\1\Flash_KL36_20201030\Debug/srcc/printf.c:93
		c[i++]='0';
    8ffa:	3330      	adds	r3, #48	; 0x30
    8ffc:	5553      	strb	r3, [r2, r5]
    8ffe:	3501      	adds	r5, #1
    9000:	e02a      	b.n	9058 <printk_mkfloatstr+0x164>
D:\Users\lihaifeng\Desktop\嵌入式\实验考核题目\1\Flash_KL36_20201030\Debug/srcc/printf.c:100
			b[j++]=q%10;
    9002:	220a      	movs	r2, #10
    9004:	2300      	movs	r3, #0
    9006:	0020      	movs	r0, r4
    9008:	9901      	ldr	r1, [sp, #4]
    900a:	f7fe f801 	bl	7010 <__aeabi_uldivmod>
    900e:	1c73      	adds	r3, r6, #1
    9010:	469a      	mov	sl, r3
    9012:	00b6      	lsls	r6, r6, #2
    9014:	ab02      	add	r3, sp, #8
    9016:	50f2      	str	r2, [r6, r3]
D:\Users\lihaifeng\Desktop\嵌入式\实验考核题目\1\Flash_KL36_20201030\Debug/srcc/printf.c:101
			q/=10;
    9018:	220a      	movs	r2, #10
    901a:	2300      	movs	r3, #0
    901c:	0020      	movs	r0, r4
    901e:	9901      	ldr	r1, [sp, #4]
    9020:	f7fd fff6 	bl	7010 <__aeabi_uldivmod>
    9024:	0004      	movs	r4, r0
    9026:	9101      	str	r1, [sp, #4]
D:\Users\lihaifeng\Desktop\嵌入式\实验考核题目\1\Flash_KL36_20201030\Debug/srcc/printf.c:100
			b[j++]=q%10;
    9028:	4656      	mov	r6, sl
D:\Users\lihaifeng\Desktop\嵌入式\实验考核题目\1\Flash_KL36_20201030\Debug/srcc/printf.c:98
		while(q!=0)//倒序的数字
    902a:	9b01      	ldr	r3, [sp, #4]
    902c:	4323      	orrs	r3, r4
    902e:	d1e8      	bne.n	9002 <printk_mkfloatstr+0x10e>
    9030:	e005      	b.n	903e <printk_mkfloatstr+0x14a>
D:\Users\lihaifeng\Desktop\嵌入式\实验考核题目\1\Flash_KL36_20201030\Debug/srcc/printf.c:105
			b[j++]=0;
    9032:	00b3      	lsls	r3, r6, #2
    9034:	2200      	movs	r2, #0
    9036:	a902      	add	r1, sp, #8
    9038:	505a      	str	r2, [r3, r1]
D:\Users\lihaifeng\Desktop\嵌入式\实验考核题目\1\Flash_KL36_20201030\Debug/srcc/printf.c:106
			k--;
    903a:	3f01      	subs	r7, #1
D:\Users\lihaifeng\Desktop\嵌入式\实验考核题目\1\Flash_KL36_20201030\Debug/srcc/printf.c:105
			b[j++]=0;
    903c:	3601      	adds	r6, #1
D:\Users\lihaifeng\Desktop\嵌入式\实验考核题目\1\Flash_KL36_20201030\Debug/srcc/printf.c:103
		while(k!=0)
    903e:	2f00      	cmp	r7, #0
    9040:	d1f7      	bne.n	9032 <printk_mkfloatstr+0x13e>
    9042:	e007      	b.n	9054 <printk_mkfloatstr+0x160>
D:\Users\lihaifeng\Desktop\嵌入式\实验考核题目\1\Flash_KL36_20201030\Debug/srcc/printf.c:110
			c[i++]=b[j-1]+'0';
    9044:	3e01      	subs	r6, #1
    9046:	00b3      	lsls	r3, r6, #2
    9048:	aa02      	add	r2, sp, #8
    904a:	589b      	ldr	r3, [r3, r2]
    904c:	3330      	adds	r3, #48	; 0x30
    904e:	464a      	mov	r2, r9
    9050:	5553      	strb	r3, [r2, r5]
    9052:	3501      	adds	r5, #1
D:\Users\lihaifeng\Desktop\嵌入式\实验考核题目\1\Flash_KL36_20201030\Debug/srcc/printf.c:108
		while(j>0)//将倒序数字转为正序，并转换为对应的字符形式
    9054:	2e00      	cmp	r6, #0
    9056:	d1f5      	bne.n	9044 <printk_mkfloatstr+0x150>
D:\Users\lihaifeng\Desktop\嵌入式\实验考核题目\1\Flash_KL36_20201030\Debug/srcc/printf.c:114
	c[i]='\0';
    9058:	464b      	mov	r3, r9
    905a:	195b      	adds	r3, r3, r5
    905c:	2200      	movs	r2, #0
    905e:	701a      	strb	r2, [r3, #0]
D:\Users\lihaifeng\Desktop\嵌入式\实验考核题目\1\Flash_KL36_20201030\Debug/srcc/printf.c:116
}
    9060:	0028      	movs	r0, r5
    9062:	b01b      	add	sp, #108	; 0x6c
    9064:	bc0c      	pop	{r2, r3}
    9066:	4691      	mov	r9, r2
    9068:	469a      	mov	sl, r3
    906a:	bdf0      	pop	{r4, r5, r6, r7, pc}
    906c:	85d8a000 	.word	0x85d8a000
    9070:	43763457 	.word	0x43763457
    9074:	40240000 	.word	0x40240000
    9078:	3ff00000 	.word	0x3ff00000

0000907c <printk>:
printk():
D:\Users\lihaifeng\Desktop\嵌入式\实验考核题目\1\Flash_KL36_20201030\Debug/srcc/printf.c:204
//       fmt:输出格式信息
//       ap:va_list指针指向格式信息输出
//函数返回：无
//======================================================================
int printk(PRINTK_INFO *info, const char *fmt, char * ap)
{
    907c:	b5f0      	push	{r4, r5, r6, r7, lr}
    907e:	46de      	mov	lr, fp
    9080:	4657      	mov	r7, sl
    9082:	464e      	mov	r6, r9
    9084:	4645      	mov	r5, r8
    9086:	b5e0      	push	{r5, r6, r7, lr}
    9088:	b095      	sub	sp, #84	; 0x54
    908a:	9000      	str	r0, [sp, #0]
    908c:	000d      	movs	r5, r1
    908e:	4690      	mov	r8, r2
D:\Users\lihaifeng\Desktop\嵌入式\实验考核题目\1\Flash_KL36_20201030\Debug/srcc/printf.c:228

	}un1;*/
	char *p;
	int c;
	//char temp1;
	char vstr[33]={'0'};
    9090:	ac0b      	add	r4, sp, #44	; 0x2c
    9092:	2221      	movs	r2, #33	; 0x21
    9094:	2100      	movs	r1, #0
    9096:	0020      	movs	r0, r4
    9098:	f000 fabb 	bl	9612 <memset>
    909c:	2330      	movs	r3, #48	; 0x30
    909e:	7023      	strb	r3, [r4, #0]
D:\Users\lihaifeng\Desktop\嵌入式\实验考核题目\1\Flash_KL36_20201030\Debug/srcc/printf.c:249
	int *ivalp;
	char *sval;
	int cval;
	unsigned int uval;

	count = 0;
    90a0:	2300      	movs	r3, #0
    90a2:	930a      	str	r3, [sp, #40]	; 0x28
D:\Users\lihaifeng\Desktop\嵌入式\实验考核题目\1\Flash_KL36_20201030\Debug/srcc/printf.c:251
	length_modifier=0;
	precision_used=TRUE;
    90a4:	3301      	adds	r3, #1
    90a6:	9301      	str	r3, [sp, #4]
D:\Users\lihaifeng\Desktop\嵌入式\实验考核题目\1\Flash_KL36_20201030\Debug/srcc/printf.c:250
	length_modifier=0;
    90a8:	2300      	movs	r3, #0
    90aa:	469a      	mov	sl, r3
D:\Users\lihaifeng\Desktop\嵌入式\实验考核题目\1\Flash_KL36_20201030\Debug/srcc/printf.c:253
	//从格式字符串第一个字符开始格式化输出数据
	for (p = (char *) fmt; (c = *p) != 0; p++)
    90ac:	e00b      	b.n	90c6 <printk+0x4a>
D:\Users\lihaifeng\Desktop\嵌入式\实验考核题目\1\Flash_KL36_20201030\Debug/srcc/printf.c:265
			if (c != '\n') {
				printk_putc(c, &count, info);
			}
			//输出换行符
			else {
				printk_putc(0x0D /* CR */, &count, info);
    90ae:	9c00      	ldr	r4, [sp, #0]
    90b0:	0022      	movs	r2, r4
    90b2:	a90a      	add	r1, sp, #40	; 0x28
    90b4:	200d      	movs	r0, #13
    90b6:	f7ff fea1 	bl	8dfc <printk_putc>
D:\Users\lihaifeng\Desktop\嵌入式\实验考核题目\1\Flash_KL36_20201030\Debug/srcc/printf.c:266
				printk_putc(0x0A /* LF */, &count, info);
    90ba:	0022      	movs	r2, r4
    90bc:	a90a      	add	r1, sp, #40	; 0x28
    90be:	200a      	movs	r0, #10
    90c0:	f7ff fe9c 	bl	8dfc <printk_putc>
D:\Users\lihaifeng\Desktop\嵌入式\实验考核题目\1\Flash_KL36_20201030\Debug/srcc/printf.c:253 (discriminator 2)
	for (p = (char *) fmt; (c = *p) != 0; p++)
    90c4:	3501      	adds	r5, #1
D:\Users\lihaifeng\Desktop\嵌入式\实验考核题目\1\Flash_KL36_20201030\Debug/srcc/printf.c:253 (discriminator 1)
    90c6:	2000      	movs	r0, #0
    90c8:	5628      	ldrsb	r0, [r5, r0]
    90ca:	2800      	cmp	r0, #0
    90cc:	d100      	bne.n	90d0 <printk+0x54>
    90ce:	e27c      	b.n	95ca <printk+0x54e>
D:\Users\lihaifeng\Desktop\嵌入式\实验考核题目\1\Flash_KL36_20201030\Debug/srcc/printf.c:256
		if (c != '%')
    90d0:	2825      	cmp	r0, #37	; 0x25
    90d2:	d022      	beq.n	911a <printk+0x9e>
D:\Users\lihaifeng\Desktop\嵌入式\实验考核题目\1\Flash_KL36_20201030\Debug/srcc/printf.c:260
			if (c != '\n') {
    90d4:	280a      	cmp	r0, #10
    90d6:	d0ea      	beq.n	90ae <printk+0x32>
D:\Users\lihaifeng\Desktop\嵌入式\实验考核题目\1\Flash_KL36_20201030\Debug/srcc/printf.c:261
				printk_putc(c, &count, info);
    90d8:	9a00      	ldr	r2, [sp, #0]
    90da:	a90a      	add	r1, sp, #40	; 0x28
    90dc:	f7ff fe8e 	bl	8dfc <printk_putc>
    90e0:	e7f0      	b.n	90c4 <printk+0x48>
D:\Users\lihaifeng\Desktop\嵌入式\实验考核题目\1\Flash_KL36_20201030\Debug/srcc/printf.c:283
		flags_used = 0;
		done = FALSE;
		while (!done) {
			switch (/* c = */*++p) {
			case '-':
				flags_used |= FLAGS_MINUS;
    90e2:	2301      	movs	r3, #1
    90e4:	431e      	orrs	r6, r3
D:\Users\lihaifeng\Desktop\嵌入式\实验考核题目\1\Flash_KL36_20201030\Debug/srcc/printf.c:204
{
    90e6:	0005      	movs	r5, r0
D:\Users\lihaifeng\Desktop\嵌入式\实验考核题目\1\Flash_KL36_20201030\Debug/srcc/printf.c:280
		while (!done) {
    90e8:	2900      	cmp	r1, #0
    90ea:	d11b      	bne.n	9124 <printk+0xa8>
D:\Users\lihaifeng\Desktop\嵌入式\实验考核题目\1\Flash_KL36_20201030\Debug/srcc/printf.c:281
			switch (/* c = */*++p) {
    90ec:	1c68      	adds	r0, r5, #1
    90ee:	2301      	movs	r3, #1
    90f0:	56eb      	ldrsb	r3, [r5, r3]
    90f2:	3b20      	subs	r3, #32
    90f4:	b2da      	uxtb	r2, r3
    90f6:	2a10      	cmp	r2, #16
    90f8:	d812      	bhi.n	9120 <printk+0xa4>
    90fa:	0093      	lsls	r3, r2, #2
    90fc:	4abe      	ldr	r2, [pc, #760]	; (93f8 <printk+0x37c>)
    90fe:	58d3      	ldr	r3, [r2, r3]
    9100:	469f      	mov	pc, r3
D:\Users\lihaifeng\Desktop\嵌入式\实验考核题目\1\Flash_KL36_20201030\Debug/srcc/printf.c:286
				break;
			case '+':
				flags_used |= FLAGS_PLUS;
    9102:	2302      	movs	r3, #2
    9104:	431e      	orrs	r6, r3
D:\Users\lihaifeng\Desktop\嵌入式\实验考核题目\1\Flash_KL36_20201030\Debug/srcc/printf.c:287
				break;
    9106:	e7ee      	b.n	90e6 <printk+0x6a>
D:\Users\lihaifeng\Desktop\嵌入式\实验考核题目\1\Flash_KL36_20201030\Debug/srcc/printf.c:289
			case ' ':
				flags_used |= FLAGS_SPACE;
    9108:	2304      	movs	r3, #4
    910a:	431e      	orrs	r6, r3
D:\Users\lihaifeng\Desktop\嵌入式\实验考核题目\1\Flash_KL36_20201030\Debug/srcc/printf.c:290
				break;
    910c:	e7eb      	b.n	90e6 <printk+0x6a>
D:\Users\lihaifeng\Desktop\嵌入式\实验考核题目\1\Flash_KL36_20201030\Debug/srcc/printf.c:292
			case '0':
				flags_used |= FLAGS_ZERO;
    910e:	2308      	movs	r3, #8
    9110:	431e      	orrs	r6, r3
D:\Users\lihaifeng\Desktop\嵌入式\实验考核题目\1\Flash_KL36_20201030\Debug/srcc/printf.c:293
				break;
    9112:	e7e8      	b.n	90e6 <printk+0x6a>
D:\Users\lihaifeng\Desktop\嵌入式\实验考核题目\1\Flash_KL36_20201030\Debug/srcc/printf.c:295
			case '#':
				flags_used |= FLAGS_POUND;
    9114:	2310      	movs	r3, #16
    9116:	431e      	orrs	r6, r3
D:\Users\lihaifeng\Desktop\嵌入式\实验考核题目\1\Flash_KL36_20201030\Debug/srcc/printf.c:296
				break;
    9118:	e7e5      	b.n	90e6 <printk+0x6a>
D:\Users\lihaifeng\Desktop\嵌入式\实验考核题目\1\Flash_KL36_20201030\Debug/srcc/printf.c:278
		flags_used = 0;
    911a:	2600      	movs	r6, #0
D:\Users\lihaifeng\Desktop\嵌入式\实验考核题目\1\Flash_KL36_20201030\Debug/srcc/printf.c:279
		done = FALSE;
    911c:	2100      	movs	r1, #0
    911e:	e7e3      	b.n	90e8 <printk+0x6c>
D:\Users\lihaifeng\Desktop\嵌入式\实验考核题目\1\Flash_KL36_20201030\Debug/srcc/printf.c:300
			default:
				/* we've gone one char too far */
				--p;
				done = TRUE;
    9120:	2101      	movs	r1, #1
    9122:	e7e1      	b.n	90e8 <printk+0x6c>
D:\Users\lihaifeng\Desktop\嵌入式\实验考核题目\1\Flash_KL36_20201030\Debug/srcc/printf.c:307
			}
		}


		//检查%后再下一个字符 确定输出长度
		field_width = 0;
    9124:	2400      	movs	r4, #0
D:\Users\lihaifeng\Desktop\嵌入式\实验考核题目\1\Flash_KL36_20201030\Debug/srcc/printf.c:308
		done = FALSE;
    9126:	2300      	movs	r3, #0
    9128:	001f      	movs	r7, r3
    912a:	e000      	b.n	912e <printk+0xb2>
D:\Users\lihaifeng\Desktop\嵌入式\实验考核题目\1\Flash_KL36_20201030\Debug/srcc/printf.c:326
				field_width = (field_width * 10) + (c - '0');
				break;
			default:
				/* we've gone one char too far */
				--p;
				done = TRUE;
    912c:	000f      	movs	r7, r1
D:\Users\lihaifeng\Desktop\嵌入式\实验考核题目\1\Flash_KL36_20201030\Debug/srcc/printf.c:309
		while (!done) {
    912e:	2f00      	cmp	r7, #0
    9130:	d10e      	bne.n	9150 <printk+0xd4>
D:\Users\lihaifeng\Desktop\嵌入式\实验考核题目\1\Flash_KL36_20201030\Debug/srcc/printf.c:310
			switch (c = *++p) {
    9132:	1c68      	adds	r0, r5, #1
    9134:	2301      	movs	r3, #1
    9136:	56eb      	ldrsb	r3, [r5, r3]
    9138:	001a      	movs	r2, r3
    913a:	3a30      	subs	r2, #48	; 0x30
    913c:	b2d2      	uxtb	r2, r2
    913e:	2a09      	cmp	r2, #9
    9140:	d8f4      	bhi.n	912c <printk+0xb0>
D:\Users\lihaifeng\Desktop\嵌入式\实验考核题目\1\Flash_KL36_20201030\Debug/srcc/printf.c:321
				field_width = (field_width * 10) + (c - '0');
    9142:	00a2      	lsls	r2, r4, #2
    9144:	1912      	adds	r2, r2, r4
    9146:	0054      	lsls	r4, r2, #1
    9148:	3b30      	subs	r3, #48	; 0x30
    914a:	18e4      	adds	r4, r4, r3
D:\Users\lihaifeng\Desktop\嵌入式\实验考核题目\1\Flash_KL36_20201030\Debug/srcc/printf.c:310
			switch (c = *++p) {
    914c:	0005      	movs	r5, r0
D:\Users\lihaifeng\Desktop\嵌入式\实验考核题目\1\Flash_KL36_20201030\Debug/srcc/printf.c:322
				break;
    914e:	e7ee      	b.n	912e <printk+0xb2>
    9150:	46bb      	mov	fp, r7
D:\Users\lihaifeng\Desktop\嵌入式\实验考核题目\1\Flash_KL36_20201030\Debug/srcc/printf.c:331
				break;
			}
		}
		//此时字符为%看是否有.输入
		if (/* (c = *++p) */*++p == '.') {
    9152:	1c6f      	adds	r7, r5, #1
    9154:	2301      	movs	r3, #1
    9156:	56eb      	ldrsb	r3, [r5, r3]
    9158:	2b2e      	cmp	r3, #46	; 0x2e
    915a:	d019      	beq.n	9190 <printk+0x114>
D:\Users\lihaifeng\Desktop\嵌入式\实验考核题目\1\Flash_KL36_20201030\Debug/srcc/printf.c:368
		} else {
			/* we've gone one char too far */
			--p;
#if 1
			precision_used = FALSE;
			precision_width = 0;
    915c:	2300      	movs	r3, #0
    915e:	4699      	mov	r9, r3
D:\Users\lihaifeng\Desktop\嵌入式\实验考核题目\1\Flash_KL36_20201030\Debug/srcc/printf.c:367
			precision_used = FALSE;
    9160:	9301      	str	r3, [sp, #4]
D:\Users\lihaifeng\Desktop\嵌入式\实验考核题目\1\Flash_KL36_20201030\Debug/srcc/printf.c:372
#endif
		}
		//判断 输出的是否有lf、LF等
		switch (/* c = */*++p) {
    9162:	1c6b      	adds	r3, r5, #1
    9164:	2201      	movs	r2, #1
    9166:	56aa      	ldrsb	r2, [r5, r2]
    9168:	2a68      	cmp	r2, #104	; 0x68
    916a:	d004      	beq.n	9176 <printk+0xfa>
    916c:	2a6c      	cmp	r2, #108	; 0x6c
    916e:	d027      	beq.n	91c0 <printk+0x144>
    9170:	2a4c      	cmp	r2, #76	; 0x4c
    9172:	d02a      	beq.n	91ca <printk+0x14e>
D:\Users\lihaifeng\Desktop\嵌入式\实验考核题目\1\Flash_KL36_20201030\Debug/srcc/printf.c:384
		case 'L':
			 length_modifier |= LENMOD_L;
			break;
		default:
			/* we've gone one char too far */
			--p;
    9174:	002b      	movs	r3, r5
D:\Users\lihaifeng\Desktop\嵌入式\实验考核题目\1\Flash_KL36_20201030\Debug/srcc/printf.c:389
			break;
		}

		//p为格式字符串的首地址
		switch (c = *++p) {
    9176:	1c5d      	adds	r5, r3, #1
    9178:	2001      	movs	r0, #1
    917a:	5618      	ldrsb	r0, [r3, r0]
    917c:	0003      	movs	r3, r0
    917e:	3b58      	subs	r3, #88	; 0x58
    9180:	b2da      	uxtb	r2, r3
    9182:	2a20      	cmp	r2, #32
    9184:	d900      	bls.n	9188 <printk+0x10c>
    9186:	e218      	b.n	95ba <printk+0x53e>
    9188:	0093      	lsls	r3, r2, #2
    918a:	4a9c      	ldr	r2, [pc, #624]	; (93fc <printk+0x380>)
    918c:	58d3      	ldr	r3, [r2, r3]
    918e:	469f      	mov	pc, r3
D:\Users\lihaifeng\Desktop\嵌入式\实验考核题目\1\Flash_KL36_20201030\Debug/srcc/printf.c:337
			precision_width = 0;
    9190:	2300      	movs	r3, #0
D:\Users\lihaifeng\Desktop\嵌入式\实验考核题目\1\Flash_KL36_20201030\Debug/srcc/printf.c:338
			done = FALSE;
    9192:	2000      	movs	r0, #0
    9194:	e000      	b.n	9198 <printk+0x11c>
D:\Users\lihaifeng\Desktop\嵌入式\实验考核题目\1\Flash_KL36_20201030\Debug/srcc/printf.c:359
					done = TRUE;
    9196:	4658      	mov	r0, fp
D:\Users\lihaifeng\Desktop\嵌入式\实验考核题目\1\Flash_KL36_20201030\Debug/srcc/printf.c:339
			while (!done) {
    9198:	2800      	cmp	r0, #0
    919a:	d10e      	bne.n	91ba <printk+0x13e>
D:\Users\lihaifeng\Desktop\嵌入式\实验考核题目\1\Flash_KL36_20201030\Debug/srcc/printf.c:340
				switch ( c = *++p) {
    919c:	1c7d      	adds	r5, r7, #1
    919e:	2201      	movs	r2, #1
    91a0:	56ba      	ldrsb	r2, [r7, r2]
    91a2:	0011      	movs	r1, r2
    91a4:	3930      	subs	r1, #48	; 0x30
    91a6:	b2c9      	uxtb	r1, r1
    91a8:	2909      	cmp	r1, #9
    91aa:	d8f4      	bhi.n	9196 <printk+0x11a>
D:\Users\lihaifeng\Desktop\嵌入式\实验考核题目\1\Flash_KL36_20201030\Debug/srcc/printf.c:352
				precision_width = (precision_width * 10) +	(c - '0');
    91ac:	0099      	lsls	r1, r3, #2
    91ae:	18c9      	adds	r1, r1, r3
    91b0:	004b      	lsls	r3, r1, #1
    91b2:	3a30      	subs	r2, #48	; 0x30
    91b4:	189b      	adds	r3, r3, r2
D:\Users\lihaifeng\Desktop\嵌入式\实验考核题目\1\Flash_KL36_20201030\Debug/srcc/printf.c:340
				switch ( c = *++p) {
    91b6:	002f      	movs	r7, r5
D:\Users\lihaifeng\Desktop\嵌入式\实验考核题目\1\Flash_KL36_20201030\Debug/srcc/printf.c:355
					break;
    91b8:	e7ee      	b.n	9198 <printk+0x11c>
    91ba:	4699      	mov	r9, r3
    91bc:	003d      	movs	r5, r7
    91be:	e7d0      	b.n	9162 <printk+0xe6>
D:\Users\lihaifeng\Desktop\嵌入式\实验考核题目\1\Flash_KL36_20201030\Debug/srcc/printf.c:377
			 length_modifier |= LENMOD_l;
    91c0:	2201      	movs	r2, #1
    91c2:	4651      	mov	r1, sl
    91c4:	4311      	orrs	r1, r2
    91c6:	468a      	mov	sl, r1
D:\Users\lihaifeng\Desktop\嵌入式\实验考核题目\1\Flash_KL36_20201030\Debug/srcc/printf.c:378
			break;
    91c8:	e7d5      	b.n	9176 <printk+0xfa>
D:\Users\lihaifeng\Desktop\嵌入式\实验考核题目\1\Flash_KL36_20201030\Debug/srcc/printf.c:380
			 length_modifier |= LENMOD_L;
    91ca:	2202      	movs	r2, #2
    91cc:	4651      	mov	r1, sl
    91ce:	4311      	orrs	r1, r2
    91d0:	468a      	mov	sl, r1
D:\Users\lihaifeng\Desktop\嵌入式\实验考核题目\1\Flash_KL36_20201030\Debug/srcc/printf.c:381
			break;
    91d2:	e7d0      	b.n	9176 <printk+0xfa>
D:\Users\lihaifeng\Desktop\嵌入式\实验考核题目\1\Flash_KL36_20201030\Debug/srcc/printf.c:394
		case 'd':
		case 'i':
			//此时ap为指向可变参数列表的第一个参数
			//返回当前参数，并将ap指向下一个参数
			ival = (int) va_arg(ap, int);  
    91d4:	4643      	mov	r3, r8
    91d6:	3304      	adds	r3, #4
    91d8:	9302      	str	r3, [sp, #8]
    91da:	4643      	mov	r3, r8
    91dc:	681b      	ldr	r3, [r3, #0]
    91de:	9309      	str	r3, [sp, #36]	; 0x24
D:\Users\lihaifeng\Desktop\嵌入式\实验考核题目\1\Flash_KL36_20201030\Debug/srcc/printf.c:396
			//将整型转换成字符型保存在vstr中，返回字符数vlen
			vlen = printk_mknumstr(vstr, &ival, TRUE, 10);
    91e0:	230a      	movs	r3, #10
    91e2:	2201      	movs	r2, #1
    91e4:	a909      	add	r1, sp, #36	; 0x24
    91e6:	a80b      	add	r0, sp, #44	; 0x2c
    91e8:	f7ff fe1d 	bl	8e26 <printk_mknumstr>
    91ec:	4681      	mov	r9, r0
D:\Users\lihaifeng\Desktop\嵌入式\实验考核题目\1\Flash_KL36_20201030\Debug/srcc/printf.c:398
			//指向转换后的最后一个字符
			vstrp = &vstr[vlen];  
    91ee:	af0b      	add	r7, sp, #44	; 0x2c
    91f0:	444f      	add	r7, r9
D:\Users\lihaifeng\Desktop\嵌入式\实验考核题目\1\Flash_KL36_20201030\Debug/srcc/printf.c:401

			//若参数小于0，添加'-'号，并将字符长度加1
			if (ival < 0) {
    91f2:	9b09      	ldr	r3, [sp, #36]	; 0x24
    91f4:	2b00      	cmp	r3, #0
    91f6:	db07      	blt.n	9208 <printk+0x18c>
D:\Users\lihaifeng\Desktop\嵌入式\实验考核题目\1\Flash_KL36_20201030\Debug/srcc/printf.c:407
				schar = '-';
				++vlen;
			}
			//若参数不小于0，添加‘+’号或者‘ ’或者为0，并将字符长度加1
			else {
				if (IS_FLAG_PLUS(flags_used)) {
    91f8:	07b3      	lsls	r3, r6, #30
    91fa:	d519      	bpl.n	9230 <printk+0x1b4>
D:\Users\lihaifeng\Desktop\嵌入式\实验考核题目\1\Flash_KL36_20201030\Debug/srcc/printf.c:409
					schar = '+';
					++vlen;
    91fc:	2301      	movs	r3, #1
    91fe:	469c      	mov	ip, r3
    9200:	44e1      	add	r9, ip
D:\Users\lihaifeng\Desktop\嵌入式\实验考核题目\1\Flash_KL36_20201030\Debug/srcc/printf.c:408
					schar = '+';
    9202:	332a      	adds	r3, #42	; 0x2a
    9204:	4698      	mov	r8, r3
    9206:	e004      	b.n	9212 <printk+0x196>
D:\Users\lihaifeng\Desktop\嵌入式\实验考核题目\1\Flash_KL36_20201030\Debug/srcc/printf.c:403
				++vlen;
    9208:	2301      	movs	r3, #1
    920a:	469c      	mov	ip, r3
    920c:	44e1      	add	r9, ip
D:\Users\lihaifeng\Desktop\嵌入式\实验考核题目\1\Flash_KL36_20201030\Debug/srcc/printf.c:402
				schar = '-';
    920e:	332c      	adds	r3, #44	; 0x2c
    9210:	4698      	mov	r8, r3
D:\Users\lihaifeng\Desktop\嵌入式\实验考核题目\1\Flash_KL36_20201030\Debug/srcc/printf.c:424
			dschar = FALSE;

			/*
			 * do the ZERO pad.
			 */
			if (IS_FLAG_ZERO(flags_used)) {
    9212:	0733      	lsls	r3, r6, #28
    9214:	d51c      	bpl.n	9250 <printk+0x1d4>
D:\Users\lihaifeng\Desktop\嵌入式\实验考核题目\1\Flash_KL36_20201030\Debug/srcc/printf.c:425
				if (schar)
    9216:	4643      	mov	r3, r8
    9218:	2b00      	cmp	r3, #0
    921a:	d113      	bne.n	9244 <printk+0x1c8>
D:\Users\lihaifeng\Desktop\嵌入式\实验考核题目\1\Flash_KL36_20201030\Debug/srcc/printf.c:428
					printk_putc(schar, &count, info);  //输出符号
				dschar = TRUE;
				printk_pad_zero(vlen, field_width, &count, info);
    921c:	9b00      	ldr	r3, [sp, #0]
    921e:	aa0a      	add	r2, sp, #40	; 0x28
    9220:	0021      	movs	r1, r4
    9222:	4648      	mov	r0, r9
    9224:	f7ff fe41 	bl	8eaa <printk_pad_zero>
D:\Users\lihaifeng\Desktop\嵌入式\实验考核题目\1\Flash_KL36_20201030\Debug/srcc/printf.c:429
				vlen = field_width;
    9228:	46a1      	mov	r9, r4
D:\Users\lihaifeng\Desktop\嵌入式\实验考核题目\1\Flash_KL36_20201030\Debug/srcc/printf.c:394
			ival = (int) va_arg(ap, int);  
    922a:	9b02      	ldr	r3, [sp, #8]
    922c:	4698      	mov	r8, r3
    922e:	e162      	b.n	94f6 <printk+0x47a>
D:\Users\lihaifeng\Desktop\嵌入式\实验考核题目\1\Flash_KL36_20201030\Debug/srcc/printf.c:411
					if (IS_FLAG_SPACE(flags_used)) {
    9230:	2304      	movs	r3, #4
    9232:	4033      	ands	r3, r6
    9234:	4698      	mov	r8, r3
    9236:	d0ec      	beq.n	9212 <printk+0x196>
D:\Users\lihaifeng\Desktop\嵌入式\实验考核题目\1\Flash_KL36_20201030\Debug/srcc/printf.c:413
						++vlen;
    9238:	2301      	movs	r3, #1
    923a:	469c      	mov	ip, r3
    923c:	44e1      	add	r9, ip
D:\Users\lihaifeng\Desktop\嵌入式\实验考核题目\1\Flash_KL36_20201030\Debug/srcc/printf.c:412
						schar = ' ';
    923e:	331f      	adds	r3, #31
    9240:	4698      	mov	r8, r3
    9242:	e7e6      	b.n	9212 <printk+0x196>
D:\Users\lihaifeng\Desktop\嵌入式\实验考核题目\1\Flash_KL36_20201030\Debug/srcc/printf.c:426
					printk_putc(schar, &count, info);  //输出符号
    9244:	9a00      	ldr	r2, [sp, #0]
    9246:	a90a      	add	r1, sp, #40	; 0x28
    9248:	4640      	mov	r0, r8
    924a:	f7ff fdd7 	bl	8dfc <printk_putc>
    924e:	e7e5      	b.n	921c <printk+0x1a0>
D:\Users\lihaifeng\Desktop\嵌入式\实验考核题目\1\Flash_KL36_20201030\Debug/srcc/printf.c:431
			} else {
				if (!IS_FLAG_MINUS(flags_used)) {
    9250:	07f3      	lsls	r3, r6, #31
    9252:	d505      	bpl.n	9260 <printk+0x1e4>
D:\Users\lihaifeng\Desktop\嵌入式\实验考核题目\1\Flash_KL36_20201030\Debug/srcc/printf.c:442
				}
			}

			/* the string was built in reverse order, now display in */
			/* correct order */
			if (!dschar && schar) {
    9254:	4643      	mov	r3, r8
    9256:	2b00      	cmp	r3, #0
    9258:	d116      	bne.n	9288 <printk+0x20c>
D:\Users\lihaifeng\Desktop\嵌入式\实验考核题目\1\Flash_KL36_20201030\Debug/srcc/printf.c:394
			ival = (int) va_arg(ap, int);  
    925a:	9b02      	ldr	r3, [sp, #8]
    925c:	4698      	mov	r8, r3
    925e:	e14a      	b.n	94f6 <printk+0x47a>
D:\Users\lihaifeng\Desktop\嵌入式\实验考核题目\1\Flash_KL36_20201030\Debug/srcc/printf.c:432
					printk_pad_space(vlen, field_width, &count, info);  //输出空格
    9260:	9b00      	ldr	r3, [sp, #0]
    9262:	aa0a      	add	r2, sp, #40	; 0x28
    9264:	0021      	movs	r1, r4
    9266:	4648      	mov	r0, r9
    9268:	f7ff fe2e 	bl	8ec8 <printk_pad_space>
D:\Users\lihaifeng\Desktop\嵌入式\实验考核题目\1\Flash_KL36_20201030\Debug/srcc/printf.c:434
					if (schar)
    926c:	4643      	mov	r3, r8
    926e:	2b00      	cmp	r3, #0
    9270:	d102      	bne.n	9278 <printk+0x1fc>
D:\Users\lihaifeng\Desktop\嵌入式\实验考核题目\1\Flash_KL36_20201030\Debug/srcc/printf.c:394
			ival = (int) va_arg(ap, int);  
    9272:	9b02      	ldr	r3, [sp, #8]
    9274:	4698      	mov	r8, r3
    9276:	e13e      	b.n	94f6 <printk+0x47a>
D:\Users\lihaifeng\Desktop\嵌入式\实验考核题目\1\Flash_KL36_20201030\Debug/srcc/printf.c:435
						printk_putc(schar, &count, info);
    9278:	9a00      	ldr	r2, [sp, #0]
    927a:	a90a      	add	r1, sp, #40	; 0x28
    927c:	4640      	mov	r0, r8
    927e:	f7ff fdbd 	bl	8dfc <printk_putc>
D:\Users\lihaifeng\Desktop\嵌入式\实验考核题目\1\Flash_KL36_20201030\Debug/srcc/printf.c:394
			ival = (int) va_arg(ap, int);  
    9282:	9b02      	ldr	r3, [sp, #8]
    9284:	4698      	mov	r8, r3
    9286:	e136      	b.n	94f6 <printk+0x47a>
D:\Users\lihaifeng\Desktop\嵌入式\实验考核题目\1\Flash_KL36_20201030\Debug/srcc/printf.c:443
				printk_putc(schar, &count, info);
    9288:	9a00      	ldr	r2, [sp, #0]
    928a:	a90a      	add	r1, sp, #40	; 0x28
    928c:	4640      	mov	r0, r8
    928e:	f7ff fdb5 	bl	8dfc <printk_putc>
D:\Users\lihaifeng\Desktop\嵌入式\实验考核题目\1\Flash_KL36_20201030\Debug/srcc/printf.c:394
			ival = (int) va_arg(ap, int);  
    9292:	9b02      	ldr	r3, [sp, #8]
    9294:	4698      	mov	r8, r3
    9296:	e12e      	b.n	94f6 <printk+0x47a>
D:\Users\lihaifeng\Desktop\嵌入式\实验考核题目\1\Flash_KL36_20201030\Debug/srcc/printf.c:457
			//实际传入变参数 函数后 浮点数变为:0x6000000040091EB8 实际是将其转化为double型数据
			//但是顺序反了，我们要做的是将后四字节提前，然后把0x60移到紧接着前四个字节后的位置。
			
			//【20200816】  XSX，解决浮点数不优化问题
			ap=ap+4;
			fval= (double)va_arg(ap,double);
    9298:	230c      	movs	r3, #12
    929a:	4443      	add	r3, r8
    929c:	469b      	mov	fp, r3
    929e:	4643      	mov	r3, r8
    92a0:	6859      	ldr	r1, [r3, #4]
    92a2:	689f      	ldr	r7, [r3, #8]
    92a4:	9102      	str	r1, [sp, #8]
    92a6:	000a      	movs	r2, r1
    92a8:	003b      	movs	r3, r7
    92aa:	9206      	str	r2, [sp, #24]
    92ac:	9307      	str	r3, [sp, #28]
D:\Users\lihaifeng\Desktop\嵌入式\实验考核题目\1\Flash_KL36_20201030\Debug/srcc/printf.c:461
			
			//【20200816】  XSX，解决负数的浮点数输出问题
			//若参数小于0，添加'-'号，并将字符长度加1
			if (fval < 0) {
    92ae:	2200      	movs	r2, #0
    92b0:	2300      	movs	r3, #0
    92b2:	9802      	ldr	r0, [sp, #8]
    92b4:	0039      	movs	r1, r7
    92b6:	f7fd fe83 	bl	6fc0 <__aeabi_dcmplt>
    92ba:	2800      	cmp	r0, #0
    92bc:	d106      	bne.n	92cc <printk+0x250>
D:\Users\lihaifeng\Desktop\嵌入式\实验考核题目\1\Flash_KL36_20201030\Debug/srcc/printf.c:468
				fval = -fval;				//负数取它的正数
				++vlen;
			}
			//若参数不小于0，添加‘+’号或者‘ ’或者为0，并将字符长度加1
			else {
				if (IS_FLAG_PLUS(flags_used)) {
    92be:	07b3      	lsls	r3, r6, #30
    92c0:	d424      	bmi.n	930c <printk+0x290>
D:\Users\lihaifeng\Desktop\嵌入式\实验考核题目\1\Flash_KL36_20201030\Debug/srcc/printf.c:472
					schar = '+';
					++vlen;
				} else {
					if (IS_FLAG_SPACE(flags_used)) {
    92c2:	2704      	movs	r7, #4
    92c4:	4037      	ands	r7, r6
    92c6:	d008      	beq.n	92da <printk+0x25e>
D:\Users\lihaifeng\Desktop\嵌入式\实验考核题目\1\Flash_KL36_20201030\Debug/srcc/printf.c:473
						schar = ' ';
    92c8:	2720      	movs	r7, #32
    92ca:	e006      	b.n	92da <printk+0x25e>
D:\Users\lihaifeng\Desktop\嵌入式\实验考核题目\1\Flash_KL36_20201030\Debug/srcc/printf.c:463
				fval = -fval;				//负数取它的正数
    92cc:	9a02      	ldr	r2, [sp, #8]
    92ce:	2180      	movs	r1, #128	; 0x80
    92d0:	0609      	lsls	r1, r1, #24
    92d2:	187b      	adds	r3, r7, r1
    92d4:	9206      	str	r2, [sp, #24]
    92d6:	9307      	str	r3, [sp, #28]
D:\Users\lihaifeng\Desktop\嵌入式\实验考核题目\1\Flash_KL36_20201030\Debug/srcc/printf.c:462
				schar = '-';
    92d8:	272d      	movs	r7, #45	; 0x2d
D:\Users\lihaifeng\Desktop\嵌入式\实验考核题目\1\Flash_KL36_20201030\Debug/srcc/printf.c:483
				}
			}
			dschar = FALSE;
			
			//确定是否使用小数点精度数值
			if(precision_used)
    92da:	9b01      	ldr	r3, [sp, #4]
    92dc:	2b00      	cmp	r3, #0
    92de:	d117      	bne.n	9310 <printk+0x294>
D:\Users\lihaifeng\Desktop\嵌入式\实验考核题目\1\Flash_KL36_20201030\Debug/srcc/printf.c:491
				vlen = printk_mkfloatstr(&fval,vstr,precision_width);
				vstrp = &vstr[0];  //指向转换后的第一个字符
			}
			else
			{	//浮点型精度到小数点后8位
				if(length_modifier==0)   
    92e0:	4653      	mov	r3, sl
    92e2:	2b00      	cmp	r3, #0
    92e4:	d11b      	bne.n	931e <printk+0x2a2>
D:\Users\lihaifeng\Desktop\嵌入式\实验考核题目\1\Flash_KL36_20201030\Debug/srcc/printf.c:493
				{	//将整型转换成字符型保存在vstr中，返回字符数vlen
					vlen = printk_mkfloatstr(&fval,vstr,8);
    92e6:	2208      	movs	r2, #8
    92e8:	a90b      	add	r1, sp, #44	; 0x2c
    92ea:	a806      	add	r0, sp, #24
    92ec:	f7ff fe02 	bl	8ef4 <printk_mkfloatstr>
    92f0:	9002      	str	r0, [sp, #8]
D:\Users\lihaifeng\Desktop\嵌入式\实验考核题目\1\Flash_KL36_20201030\Debug/srcc/printf.c:511
			

			/*
			 * do the ZERO pad.
			 */
			if (IS_FLAG_ZERO(flags_used)) {
    92f2:	0733      	lsls	r3, r6, #28
    92f4:	d520      	bpl.n	9338 <printk+0x2bc>
D:\Users\lihaifeng\Desktop\嵌入式\实验考核题目\1\Flash_KL36_20201030\Debug/srcc/printf.c:512
				if (schar)
    92f6:	2f00      	cmp	r7, #0
    92f8:	d118      	bne.n	932c <printk+0x2b0>
D:\Users\lihaifeng\Desktop\嵌入式\实验考核题目\1\Flash_KL36_20201030\Debug/srcc/printf.c:515
					printk_putc(schar, &count, info);  //输出符号
				dschar = TRUE;
				printk_pad_zero(vlen, field_width, &count, info);
    92fa:	9b00      	ldr	r3, [sp, #0]
    92fc:	aa0a      	add	r2, sp, #40	; 0x28
    92fe:	0021      	movs	r1, r4
    9300:	9802      	ldr	r0, [sp, #8]
    9302:	f7ff fdd2 	bl	8eaa <printk_pad_zero>
D:\Users\lihaifeng\Desktop\嵌入式\实验考核题目\1\Flash_KL36_20201030\Debug/srcc/printf.c:516
				vlen = field_width;
    9306:	9402      	str	r4, [sp, #8]
    9308:	af0b      	add	r7, sp, #44	; 0x2c
    930a:	e032      	b.n	9372 <printk+0x2f6>
D:\Users\lihaifeng\Desktop\嵌入式\实验考核题目\1\Flash_KL36_20201030\Debug/srcc/printf.c:469
					schar = '+';
    930c:	272b      	movs	r7, #43	; 0x2b
    930e:	e7e4      	b.n	92da <printk+0x25e>
D:\Users\lihaifeng\Desktop\嵌入式\实验考核题目\1\Flash_KL36_20201030\Debug/srcc/printf.c:486
				vlen = printk_mkfloatstr(&fval,vstr,precision_width);
    9310:	464a      	mov	r2, r9
    9312:	a90b      	add	r1, sp, #44	; 0x2c
    9314:	a806      	add	r0, sp, #24
    9316:	f7ff fded 	bl	8ef4 <printk_mkfloatstr>
    931a:	9002      	str	r0, [sp, #8]
    931c:	e7e9      	b.n	92f2 <printk+0x276>
D:\Users\lihaifeng\Desktop\嵌入式\实验考核题目\1\Flash_KL36_20201030\Debug/srcc/printf.c:499
					vlen = printk_mkfloatstr(&fval,vstr,precision_width);
    931e:	464a      	mov	r2, r9
    9320:	a90b      	add	r1, sp, #44	; 0x2c
    9322:	a806      	add	r0, sp, #24
    9324:	f7ff fde6 	bl	8ef4 <printk_mkfloatstr>
    9328:	9002      	str	r0, [sp, #8]
    932a:	e7e2      	b.n	92f2 <printk+0x276>
D:\Users\lihaifeng\Desktop\嵌入式\实验考核题目\1\Flash_KL36_20201030\Debug/srcc/printf.c:513
					printk_putc(schar, &count, info);  //输出符号
    932c:	9a00      	ldr	r2, [sp, #0]
    932e:	a90a      	add	r1, sp, #40	; 0x28
    9330:	0038      	movs	r0, r7
    9332:	f7ff fd63 	bl	8dfc <printk_putc>
    9336:	e7e0      	b.n	92fa <printk+0x27e>
D:\Users\lihaifeng\Desktop\嵌入式\实验考核题目\1\Flash_KL36_20201030\Debug/srcc/printf.c:518
			} else {
				if (!IS_FLAG_MINUS(flags_used)) {
    9338:	07f3      	lsls	r3, r6, #31
    933a:	d507      	bpl.n	934c <printk+0x2d0>
D:\Users\lihaifeng\Desktop\嵌入式\实验考核题目\1\Flash_KL36_20201030\Debug/srcc/printf.c:529
				}
			}

			/* the string was built in reverse order, now display in */
			/* correct order */
			if (!dschar && schar) {
    933c:	2f00      	cmp	r7, #0
    933e:	d0e3      	beq.n	9308 <printk+0x28c>
D:\Users\lihaifeng\Desktop\嵌入式\实验考核题目\1\Flash_KL36_20201030\Debug/srcc/printf.c:530
				printk_putc(schar, &count, info);
    9340:	9a00      	ldr	r2, [sp, #0]
    9342:	a90a      	add	r1, sp, #40	; 0x28
    9344:	0038      	movs	r0, r7
    9346:	f7ff fd59 	bl	8dfc <printk_putc>
    934a:	e7dd      	b.n	9308 <printk+0x28c>
D:\Users\lihaifeng\Desktop\嵌入式\实验考核题目\1\Flash_KL36_20201030\Debug/srcc/printf.c:519
					printk_pad_space(vlen, field_width, &count, info);  //输出空格
    934c:	9b00      	ldr	r3, [sp, #0]
    934e:	aa0a      	add	r2, sp, #40	; 0x28
    9350:	0021      	movs	r1, r4
    9352:	9802      	ldr	r0, [sp, #8]
    9354:	f7ff fdb8 	bl	8ec8 <printk_pad_space>
D:\Users\lihaifeng\Desktop\嵌入式\实验考核题目\1\Flash_KL36_20201030\Debug/srcc/printf.c:521
					if (schar)
    9358:	2f00      	cmp	r7, #0
    935a:	d0d5      	beq.n	9308 <printk+0x28c>
D:\Users\lihaifeng\Desktop\嵌入式\实验考核题目\1\Flash_KL36_20201030\Debug/srcc/printf.c:522
						printk_putc(schar, &count, info);
    935c:	9a00      	ldr	r2, [sp, #0]
    935e:	a90a      	add	r1, sp, #40	; 0x28
    9360:	0038      	movs	r0, r7
    9362:	f7ff fd4b 	bl	8dfc <printk_putc>
    9366:	e7cf      	b.n	9308 <printk+0x28c>
D:\Users\lihaifeng\Desktop\嵌入式\实验考核题目\1\Flash_KL36_20201030\Debug/srcc/printf.c:533
			}
			while (*vstrp)
				printk_putc(*vstrp++, &count, info);
    9368:	3701      	adds	r7, #1
    936a:	9a00      	ldr	r2, [sp, #0]
    936c:	a90a      	add	r1, sp, #40	; 0x28
    936e:	f7ff fd45 	bl	8dfc <printk_putc>
D:\Users\lihaifeng\Desktop\嵌入式\实验考核题目\1\Flash_KL36_20201030\Debug/srcc/printf.c:532
			while (*vstrp)
    9372:	2000      	movs	r0, #0
    9374:	5638      	ldrsb	r0, [r7, r0]
    9376:	2800      	cmp	r0, #0
    9378:	d1f6      	bne.n	9368 <printk+0x2ec>
D:\Users\lihaifeng\Desktop\嵌入式\实验考核题目\1\Flash_KL36_20201030\Debug/srcc/printf.c:534
			if (IS_FLAG_MINUS(flags_used)) {
    937a:	07f3      	lsls	r3, r6, #31
    937c:	d401      	bmi.n	9382 <printk+0x306>
D:\Users\lihaifeng\Desktop\嵌入式\实验考核题目\1\Flash_KL36_20201030\Debug/srcc/printf.c:457
			fval= (double)va_arg(ap,double);
    937e:	46d8      	mov	r8, fp
    9380:	e6a0      	b.n	90c4 <printk+0x48>
D:\Users\lihaifeng\Desktop\嵌入式\实验考核题目\1\Flash_KL36_20201030\Debug/srcc/printf.c:535
				printk_pad_space(vlen, field_width, &count, info);
    9382:	9b00      	ldr	r3, [sp, #0]
    9384:	aa0a      	add	r2, sp, #40	; 0x28
    9386:	0021      	movs	r1, r4
    9388:	9802      	ldr	r0, [sp, #8]
    938a:	f7ff fd9d 	bl	8ec8 <printk_pad_space>
D:\Users\lihaifeng\Desktop\嵌入式\实验考核题目\1\Flash_KL36_20201030\Debug/srcc/printf.c:457
			fval= (double)va_arg(ap,double);
    938e:	46d8      	mov	r8, fp
    9390:	e698      	b.n	90c4 <printk+0x48>
D:\Users\lihaifeng\Desktop\嵌入式\实验考核题目\1\Flash_KL36_20201030\Debug/srcc/printf.c:541
			}
            break;
        //以下是16进制整形输出
		case 'x':
		case 'X':
			uval = (unsigned int) va_arg(ap, unsigned int);
    9392:	4643      	mov	r3, r8
    9394:	3304      	adds	r3, #4
    9396:	9302      	str	r3, [sp, #8]
    9398:	4643      	mov	r3, r8
    939a:	681b      	ldr	r3, [r3, #0]
    939c:	9305      	str	r3, [sp, #20]
D:\Users\lihaifeng\Desktop\嵌入式\实验考核题目\1\Flash_KL36_20201030\Debug/srcc/printf.c:542
			vlen = printk_mknumstr(vstr, &uval, FALSE, 16);
    939e:	2310      	movs	r3, #16
    93a0:	2200      	movs	r2, #0
    93a2:	a905      	add	r1, sp, #20
    93a4:	a80b      	add	r0, sp, #44	; 0x2c
    93a6:	f7ff fd3e 	bl	8e26 <printk_mknumstr>
    93aa:	4681      	mov	r9, r0
D:\Users\lihaifeng\Desktop\嵌入式\实验考核题目\1\Flash_KL36_20201030\Debug/srcc/printf.c:543
			vstrp = &vstr[vlen];
    93ac:	af0b      	add	r7, sp, #44	; 0x2c
    93ae:	444f      	add	r7, r9
D:\Users\lihaifeng\Desktop\嵌入式\实验考核题目\1\Flash_KL36_20201030\Debug/srcc/printf.c:546

			dschar = FALSE;
			if (IS_FLAG_ZERO(flags_used)) {
    93b0:	2308      	movs	r3, #8
    93b2:	4033      	ands	r3, r6
    93b4:	4698      	mov	r8, r3
    93b6:	d023      	beq.n	9400 <printk+0x384>
D:\Users\lihaifeng\Desktop\嵌入式\实验考核题目\1\Flash_KL36_20201030\Debug/srcc/printf.c:547
				if (IS_FLAG_POUND(flags_used)) {
    93b8:	2310      	movs	r3, #16
    93ba:	4033      	ands	r3, r6
    93bc:	4698      	mov	r8, r3
    93be:	d10f      	bne.n	93e0 <printk+0x364>
D:\Users\lihaifeng\Desktop\嵌入式\实验考核题目\1\Flash_KL36_20201030\Debug/srcc/printf.c:553
					printk_putc('0', &count, info);
					printk_putc('x', &count, info);
					/*vlen += 2;*/
					dschar = TRUE;
				}
				printk_pad_zero(vlen, field_width, &count, info);
    93c0:	9b00      	ldr	r3, [sp, #0]
    93c2:	aa0a      	add	r2, sp, #40	; 0x28
    93c4:	0021      	movs	r1, r4
    93c6:	4648      	mov	r0, r9
    93c8:	f7ff fd6f 	bl	8eaa <printk_pad_zero>
D:\Users\lihaifeng\Desktop\嵌入式\实验考核题目\1\Flash_KL36_20201030\Debug/srcc/printf.c:554
				vlen = field_width;
    93cc:	46a1      	mov	r9, r4
D:\Users\lihaifeng\Desktop\嵌入式\实验考核题目\1\Flash_KL36_20201030\Debug/srcc/printf.c:569
						dschar = TRUE;
					}
				}
			}

			if ((IS_FLAG_POUND(flags_used)) && !dschar) {
    93ce:	06f3      	lsls	r3, r6, #27
    93d0:	d400      	bmi.n	93d4 <printk+0x358>
    93d2:	e09e      	b.n	9512 <printk+0x496>
D:\Users\lihaifeng\Desktop\嵌入式\实验考核题目\1\Flash_KL36_20201030\Debug/srcc/printf.c:569 (discriminator 1)
    93d4:	4643      	mov	r3, r8
    93d6:	2b00      	cmp	r3, #0
    93d8:	d030      	beq.n	943c <printk+0x3c0>
D:\Users\lihaifeng\Desktop\嵌入式\实验考核题目\1\Flash_KL36_20201030\Debug/srcc/printf.c:541
			uval = (unsigned int) va_arg(ap, unsigned int);
    93da:	9b02      	ldr	r3, [sp, #8]
    93dc:	4698      	mov	r8, r3
    93de:	e08a      	b.n	94f6 <printk+0x47a>
D:\Users\lihaifeng\Desktop\嵌入式\实验考核题目\1\Flash_KL36_20201030\Debug/srcc/printf.c:548
					printk_putc('0', &count, info);
    93e0:	9a00      	ldr	r2, [sp, #0]
    93e2:	a90a      	add	r1, sp, #40	; 0x28
    93e4:	2030      	movs	r0, #48	; 0x30
    93e6:	f7ff fd09 	bl	8dfc <printk_putc>
D:\Users\lihaifeng\Desktop\嵌入式\实验考核题目\1\Flash_KL36_20201030\Debug/srcc/printf.c:549
					printk_putc('x', &count, info);
    93ea:	9a00      	ldr	r2, [sp, #0]
    93ec:	a90a      	add	r1, sp, #40	; 0x28
    93ee:	2078      	movs	r0, #120	; 0x78
    93f0:	f7ff fd04 	bl	8dfc <printk_putc>
D:\Users\lihaifeng\Desktop\嵌入式\实验考核题目\1\Flash_KL36_20201030\Debug/srcc/printf.c:551
					dschar = TRUE;
    93f4:	46d8      	mov	r8, fp
    93f6:	e7e3      	b.n	93c0 <printk+0x344>
    93f8:	00009ab0 	.word	0x00009ab0
    93fc:	00009af4 	.word	0x00009af4
D:\Users\lihaifeng\Desktop\嵌入式\实验考核题目\1\Flash_KL36_20201030\Debug/srcc/printf.c:556
				if (!IS_FLAG_MINUS(flags_used)) {
    9400:	07f3      	lsls	r3, r6, #31
    9402:	d4e4      	bmi.n	93ce <printk+0x352>
D:\Users\lihaifeng\Desktop\嵌入式\实验考核题目\1\Flash_KL36_20201030\Debug/srcc/printf.c:557
					if (IS_FLAG_POUND(flags_used)) {
    9404:	2310      	movs	r3, #16
    9406:	4033      	ands	r3, r6
    9408:	4698      	mov	r8, r3
    940a:	d002      	beq.n	9412 <printk+0x396>
D:\Users\lihaifeng\Desktop\嵌入式\实验考核题目\1\Flash_KL36_20201030\Debug/srcc/printf.c:558
						vlen += 2;
    940c:	2302      	movs	r3, #2
    940e:	469c      	mov	ip, r3
    9410:	44e1      	add	r9, ip
D:\Users\lihaifeng\Desktop\嵌入式\实验考核题目\1\Flash_KL36_20201030\Debug/srcc/printf.c:560
					printk_pad_space(vlen, field_width, &count, info);
    9412:	9b00      	ldr	r3, [sp, #0]
    9414:	aa0a      	add	r2, sp, #40	; 0x28
    9416:	0021      	movs	r1, r4
    9418:	4648      	mov	r0, r9
    941a:	f7ff fd55 	bl	8ec8 <printk_pad_space>
D:\Users\lihaifeng\Desktop\嵌入式\实验考核题目\1\Flash_KL36_20201030\Debug/srcc/printf.c:561
					if (IS_FLAG_POUND(flags_used)) {
    941e:	4643      	mov	r3, r8
    9420:	2b00      	cmp	r3, #0
    9422:	d0d4      	beq.n	93ce <printk+0x352>
D:\Users\lihaifeng\Desktop\嵌入式\实验考核题目\1\Flash_KL36_20201030\Debug/srcc/printf.c:562
						printk_putc('0', &count, info);
    9424:	9a00      	ldr	r2, [sp, #0]
    9426:	a90a      	add	r1, sp, #40	; 0x28
    9428:	2030      	movs	r0, #48	; 0x30
    942a:	f7ff fce7 	bl	8dfc <printk_putc>
D:\Users\lihaifeng\Desktop\嵌入式\实验考核题目\1\Flash_KL36_20201030\Debug/srcc/printf.c:563
						printk_putc('x', &count, info);
    942e:	9a00      	ldr	r2, [sp, #0]
    9430:	a90a      	add	r1, sp, #40	; 0x28
    9432:	2078      	movs	r0, #120	; 0x78
    9434:	f7ff fce2 	bl	8dfc <printk_putc>
D:\Users\lihaifeng\Desktop\嵌入式\实验考核题目\1\Flash_KL36_20201030\Debug/srcc/printf.c:564
						dschar = TRUE;
    9438:	46d8      	mov	r8, fp
    943a:	e7c8      	b.n	93ce <printk+0x352>
D:\Users\lihaifeng\Desktop\嵌入式\实验考核题目\1\Flash_KL36_20201030\Debug/srcc/printf.c:570
				printk_putc('0', &count, info);
    943c:	9a00      	ldr	r2, [sp, #0]
    943e:	a90a      	add	r1, sp, #40	; 0x28
    9440:	2030      	movs	r0, #48	; 0x30
    9442:	f7ff fcdb 	bl	8dfc <printk_putc>
D:\Users\lihaifeng\Desktop\嵌入式\实验考核题目\1\Flash_KL36_20201030\Debug/srcc/printf.c:571
				printk_putc('x', &count, info);
    9446:	9a00      	ldr	r2, [sp, #0]
    9448:	a90a      	add	r1, sp, #40	; 0x28
    944a:	2078      	movs	r0, #120	; 0x78
    944c:	f7ff fcd6 	bl	8dfc <printk_putc>
D:\Users\lihaifeng\Desktop\嵌入式\实验考核题目\1\Flash_KL36_20201030\Debug/srcc/printf.c:572
				vlen += 2;
    9450:	2302      	movs	r3, #2
    9452:	469c      	mov	ip, r3
    9454:	44e1      	add	r9, ip
D:\Users\lihaifeng\Desktop\嵌入式\实验考核题目\1\Flash_KL36_20201030\Debug/srcc/printf.c:541
			uval = (unsigned int) va_arg(ap, unsigned int);
    9456:	9b02      	ldr	r3, [sp, #8]
    9458:	4698      	mov	r8, r3
    945a:	e04c      	b.n	94f6 <printk+0x47a>
D:\Users\lihaifeng\Desktop\嵌入式\实验考核题目\1\Flash_KL36_20201030\Debug/srcc/printf.c:577
			}
			goto cont_xd;
		//无符号以八进制表示的整数输出
		case 'o':
			uval = (unsigned int) va_arg(ap, unsigned int);
    945c:	4643      	mov	r3, r8
    945e:	1d1f      	adds	r7, r3, #4
    9460:	681b      	ldr	r3, [r3, #0]
    9462:	9305      	str	r3, [sp, #20]
D:\Users\lihaifeng\Desktop\嵌入式\实验考核题目\1\Flash_KL36_20201030\Debug/srcc/printf.c:578
			vlen = printk_mknumstr(vstr, &uval, FALSE, 8);
    9464:	2308      	movs	r3, #8
    9466:	2200      	movs	r2, #0
    9468:	a905      	add	r1, sp, #20
    946a:	a80b      	add	r0, sp, #44	; 0x2c
    946c:	f7ff fcdb 	bl	8e26 <printk_mknumstr>
    9470:	4681      	mov	r9, r0
D:\Users\lihaifeng\Desktop\嵌入式\实验考核题目\1\Flash_KL36_20201030\Debug/srcc/printf.c:577
			uval = (unsigned int) va_arg(ap, unsigned int);
    9472:	46b8      	mov	r8, r7
D:\Users\lihaifeng\Desktop\嵌入式\实验考核题目\1\Flash_KL36_20201030\Debug/srcc/printf.c:594
			goto cont_u;
		case 'u':
			uval = (unsigned int) va_arg(ap, unsigned int);
			vlen = printk_mknumstr(vstr, &uval, FALSE, 10);

			cont_u: vstrp = &vstr[vlen];
    9474:	af0b      	add	r7, sp, #44	; 0x2c
    9476:	444f      	add	r7, r9
D:\Users\lihaifeng\Desktop\嵌入式\实验考核题目\1\Flash_KL36_20201030\Debug/srcc/printf.c:596

			if (IS_FLAG_ZERO(flags_used)) {
    9478:	0733      	lsls	r3, r6, #28
    947a:	d42f      	bmi.n	94dc <printk+0x460>
D:\Users\lihaifeng\Desktop\嵌入式\实验考核题目\1\Flash_KL36_20201030\Debug/srcc/printf.c:600
				printk_pad_zero(vlen, field_width, &count, info);
				vlen = field_width;
			} else {
				if (!IS_FLAG_MINUS(flags_used)) {
    947c:	07f3      	lsls	r3, r6, #31
    947e:	d43a      	bmi.n	94f6 <printk+0x47a>
D:\Users\lihaifeng\Desktop\嵌入式\实验考核题目\1\Flash_KL36_20201030\Debug/srcc/printf.c:601
					printk_pad_space(vlen, field_width, &count, info);
    9480:	9b00      	ldr	r3, [sp, #0]
    9482:	aa0a      	add	r2, sp, #40	; 0x28
    9484:	0021      	movs	r1, r4
    9486:	4648      	mov	r0, r9
    9488:	f7ff fd1e 	bl	8ec8 <printk_pad_space>
    948c:	e033      	b.n	94f6 <printk+0x47a>
D:\Users\lihaifeng\Desktop\嵌入式\实验考核题目\1\Flash_KL36_20201030\Debug/srcc/printf.c:582
			uval = (unsigned int) va_arg(ap, unsigned int);
    948e:	4643      	mov	r3, r8
    9490:	1d1f      	adds	r7, r3, #4
    9492:	681b      	ldr	r3, [r3, #0]
    9494:	9305      	str	r3, [sp, #20]
D:\Users\lihaifeng\Desktop\嵌入式\实验考核题目\1\Flash_KL36_20201030\Debug/srcc/printf.c:583
			vlen = printk_mknumstr(vstr, &uval, FALSE, 2);
    9496:	2302      	movs	r3, #2
    9498:	2200      	movs	r2, #0
    949a:	a905      	add	r1, sp, #20
    949c:	a80b      	add	r0, sp, #44	; 0x2c
    949e:	f7ff fcc2 	bl	8e26 <printk_mknumstr>
    94a2:	4681      	mov	r9, r0
D:\Users\lihaifeng\Desktop\嵌入式\实验考核题目\1\Flash_KL36_20201030\Debug/srcc/printf.c:582
			uval = (unsigned int) va_arg(ap, unsigned int);
    94a4:	46b8      	mov	r8, r7
D:\Users\lihaifeng\Desktop\嵌入式\实验考核题目\1\Flash_KL36_20201030\Debug/srcc/printf.c:584
			goto cont_u;
    94a6:	e7e5      	b.n	9474 <printk+0x3f8>
D:\Users\lihaifeng\Desktop\嵌入式\实验考核题目\1\Flash_KL36_20201030\Debug/srcc/printf.c:587
			uval = (unsigned int) va_arg(ap, void *);
    94a8:	4643      	mov	r3, r8
    94aa:	1d1f      	adds	r7, r3, #4
    94ac:	681b      	ldr	r3, [r3, #0]
    94ae:	9305      	str	r3, [sp, #20]
D:\Users\lihaifeng\Desktop\嵌入式\实验考核题目\1\Flash_KL36_20201030\Debug/srcc/printf.c:588
			vlen = printk_mknumstr(vstr, &uval, FALSE, 16);
    94b0:	2310      	movs	r3, #16
    94b2:	2200      	movs	r2, #0
    94b4:	a905      	add	r1, sp, #20
    94b6:	a80b      	add	r0, sp, #44	; 0x2c
    94b8:	f7ff fcb5 	bl	8e26 <printk_mknumstr>
    94bc:	4681      	mov	r9, r0
D:\Users\lihaifeng\Desktop\嵌入式\实验考核题目\1\Flash_KL36_20201030\Debug/srcc/printf.c:587
			uval = (unsigned int) va_arg(ap, void *);
    94be:	46b8      	mov	r8, r7
D:\Users\lihaifeng\Desktop\嵌入式\实验考核题目\1\Flash_KL36_20201030\Debug/srcc/printf.c:589
			goto cont_u;
    94c0:	e7d8      	b.n	9474 <printk+0x3f8>
D:\Users\lihaifeng\Desktop\嵌入式\实验考核题目\1\Flash_KL36_20201030\Debug/srcc/printf.c:591
			uval = (unsigned int) va_arg(ap, unsigned int);
    94c2:	4643      	mov	r3, r8
    94c4:	1d1f      	adds	r7, r3, #4
    94c6:	681b      	ldr	r3, [r3, #0]
    94c8:	9305      	str	r3, [sp, #20]
D:\Users\lihaifeng\Desktop\嵌入式\实验考核题目\1\Flash_KL36_20201030\Debug/srcc/printf.c:592
			vlen = printk_mknumstr(vstr, &uval, FALSE, 10);
    94ca:	230a      	movs	r3, #10
    94cc:	2200      	movs	r2, #0
    94ce:	a905      	add	r1, sp, #20
    94d0:	a80b      	add	r0, sp, #44	; 0x2c
    94d2:	f7ff fca8 	bl	8e26 <printk_mknumstr>
    94d6:	4681      	mov	r9, r0
D:\Users\lihaifeng\Desktop\嵌入式\实验考核题目\1\Flash_KL36_20201030\Debug/srcc/printf.c:591
			uval = (unsigned int) va_arg(ap, unsigned int);
    94d8:	46b8      	mov	r8, r7
    94da:	e7cb      	b.n	9474 <printk+0x3f8>
D:\Users\lihaifeng\Desktop\嵌入式\实验考核题目\1\Flash_KL36_20201030\Debug/srcc/printf.c:597
				printk_pad_zero(vlen, field_width, &count, info);
    94dc:	9b00      	ldr	r3, [sp, #0]
    94de:	aa0a      	add	r2, sp, #40	; 0x28
    94e0:	0021      	movs	r1, r4
    94e2:	4648      	mov	r0, r9
    94e4:	f7ff fce1 	bl	8eaa <printk_pad_zero>
D:\Users\lihaifeng\Desktop\嵌入式\实验考核题目\1\Flash_KL36_20201030\Debug/srcc/printf.c:598
				vlen = field_width;
    94e8:	46a1      	mov	r9, r4
    94ea:	e004      	b.n	94f6 <printk+0x47a>
D:\Users\lihaifeng\Desktop\嵌入式\实验考核题目\1\Flash_KL36_20201030\Debug/srcc/printf.c:606
				}
			}

			cont_xd: while (*vstrp)
				printk_putc(*vstrp--, &count, info);
    94ec:	3f01      	subs	r7, #1
    94ee:	9a00      	ldr	r2, [sp, #0]
    94f0:	a90a      	add	r1, sp, #40	; 0x28
    94f2:	f7ff fc83 	bl	8dfc <printk_putc>
D:\Users\lihaifeng\Desktop\嵌入式\实验考核题目\1\Flash_KL36_20201030\Debug/srcc/printf.c:605 (discriminator 1)
			cont_xd: while (*vstrp)
    94f6:	2000      	movs	r0, #0
    94f8:	5638      	ldrsb	r0, [r7, r0]
    94fa:	2800      	cmp	r0, #0
    94fc:	d1f6      	bne.n	94ec <printk+0x470>
D:\Users\lihaifeng\Desktop\嵌入式\实验考核题目\1\Flash_KL36_20201030\Debug/srcc/printf.c:608

			if (IS_FLAG_MINUS(flags_used)) {
    94fe:	07f3      	lsls	r3, r6, #31
    9500:	d400      	bmi.n	9504 <printk+0x488>
    9502:	e5df      	b.n	90c4 <printk+0x48>
D:\Users\lihaifeng\Desktop\嵌入式\实验考核题目\1\Flash_KL36_20201030\Debug/srcc/printf.c:609
				printk_pad_space(vlen, field_width, &count, info);
    9504:	9b00      	ldr	r3, [sp, #0]
    9506:	aa0a      	add	r2, sp, #40	; 0x28
    9508:	0021      	movs	r1, r4
    950a:	4648      	mov	r0, r9
    950c:	f7ff fcdc 	bl	8ec8 <printk_pad_space>
    9510:	e5d8      	b.n	90c4 <printk+0x48>
D:\Users\lihaifeng\Desktop\嵌入式\实验考核题目\1\Flash_KL36_20201030\Debug/srcc/printf.c:541
			uval = (unsigned int) va_arg(ap, unsigned int);
    9512:	9b02      	ldr	r3, [sp, #8]
    9514:	4698      	mov	r8, r3
    9516:	e7ee      	b.n	94f6 <printk+0x47a>
D:\Users\lihaifeng\Desktop\嵌入式\实验考核题目\1\Flash_KL36_20201030\Debug/srcc/printf.c:615
			}

			break;
        //字符型输出
		case 'c':
			cval = (char) va_arg(ap, unsigned int);
    9518:	4643      	mov	r3, r8
    951a:	1d1c      	adds	r4, r3, #4
    951c:	2000      	movs	r0, #0
    951e:	5618      	ldrsb	r0, [r3, r0]
D:\Users\lihaifeng\Desktop\嵌入式\实验考核题目\1\Flash_KL36_20201030\Debug/srcc/printf.c:616
			printk_putc(cval, &count, info);
    9520:	9a00      	ldr	r2, [sp, #0]
    9522:	a90a      	add	r1, sp, #40	; 0x28
    9524:	f7ff fc6a 	bl	8dfc <printk_putc>
D:\Users\lihaifeng\Desktop\嵌入式\实验考核题目\1\Flash_KL36_20201030\Debug/srcc/printf.c:615
			cval = (char) va_arg(ap, unsigned int);
    9528:	46a0      	mov	r8, r4
D:\Users\lihaifeng\Desktop\嵌入式\实验考核题目\1\Flash_KL36_20201030\Debug/srcc/printf.c:617
			break;
    952a:	e5cb      	b.n	90c4 <printk+0x48>
D:\Users\lihaifeng\Desktop\嵌入式\实验考核题目\1\Flash_KL36_20201030\Debug/srcc/printf.c:619
		case 's':
			sval = (char *) va_arg(ap, char *);
    952c:	4643      	mov	r3, r8
    952e:	3304      	adds	r3, #4
    9530:	9302      	str	r3, [sp, #8]
    9532:	4643      	mov	r3, r8
    9534:	681f      	ldr	r7, [r3, #0]
D:\Users\lihaifeng\Desktop\嵌入式\实验考核题目\1\Flash_KL36_20201030\Debug/srcc/printf.c:620
			if (sval) {
    9536:	2f00      	cmp	r7, #0
    9538:	d044      	beq.n	95c4 <printk+0x548>
D:\Users\lihaifeng\Desktop\嵌入式\实验考核题目\1\Flash_KL36_20201030\Debug/srcc/printf.c:621
				vlen = strlen(sval);
    953a:	0038      	movs	r0, r7
    953c:	f7fe fde4 	bl	8108 <strlen>
    9540:	9003      	str	r0, [sp, #12]
D:\Users\lihaifeng\Desktop\嵌入式\实验考核题目\1\Flash_KL36_20201030\Debug/srcc/printf.c:622
				if (!IS_FLAG_MINUS(flags_used)) {
    9542:	2301      	movs	r3, #1
    9544:	401e      	ands	r6, r3
    9546:	d013      	beq.n	9570 <printk+0x4f4>
D:\Users\lihaifeng\Desktop\嵌入式\实验考核题目\1\Flash_KL36_20201030\Debug/srcc/printf.c:625
					printk_pad_space(vlen, field_width, &count, info);
				}
				if(precision_width!=0)
    9548:	464b      	mov	r3, r9
    954a:	2b00      	cmp	r3, #0
    954c:	d01b      	beq.n	9586 <printk+0x50a>
D:\Users\lihaifeng\Desktop\嵌入式\实验考核题目\1\Flash_KL36_20201030\Debug/srcc/printf.c:627
				{
					while (*sval)
    954e:	2000      	movs	r0, #0
    9550:	5638      	ldrsb	r0, [r7, r0]
    9552:	2800      	cmp	r0, #0
    9554:	d01b      	beq.n	958e <printk+0x512>
D:\Users\lihaifeng\Desktop\嵌入式\实验考核题目\1\Flash_KL36_20201030\Debug/srcc/printf.c:629
					{
						if(precision_width>=1)
    9556:	464b      	mov	r3, r9
    9558:	2b00      	cmp	r3, #0
    955a:	ddf8      	ble.n	954e <printk+0x4d2>
D:\Users\lihaifeng\Desktop\嵌入式\实验考核题目\1\Flash_KL36_20201030\Debug/srcc/printf.c:631
						{
							precision_width--;
    955c:	2301      	movs	r3, #1
    955e:	425b      	negs	r3, r3
    9560:	469c      	mov	ip, r3
    9562:	44e1      	add	r9, ip
D:\Users\lihaifeng\Desktop\嵌入式\实验考核题目\1\Flash_KL36_20201030\Debug/srcc/printf.c:632
							printk_putc(*sval++, &count, info);
    9564:	3701      	adds	r7, #1
    9566:	9a00      	ldr	r2, [sp, #0]
    9568:	a90a      	add	r1, sp, #40	; 0x28
    956a:	f7ff fc47 	bl	8dfc <printk_putc>
    956e:	e7ee      	b.n	954e <printk+0x4d2>
D:\Users\lihaifeng\Desktop\嵌入式\实验考核题目\1\Flash_KL36_20201030\Debug/srcc/printf.c:623
					printk_pad_space(vlen, field_width, &count, info);
    9570:	9b00      	ldr	r3, [sp, #0]
    9572:	aa0a      	add	r2, sp, #40	; 0x28
    9574:	0021      	movs	r1, r4
    9576:	f7ff fca7 	bl	8ec8 <printk_pad_space>
    957a:	e7e5      	b.n	9548 <printk+0x4cc>
D:\Users\lihaifeng\Desktop\嵌入式\实验考核题目\1\Flash_KL36_20201030\Debug/srcc/printf.c:639
					}
				}
				else    //precision_width=0情况
				{
					while (*sval)
					   printk_putc(*sval++, &count, info);
    957c:	3701      	adds	r7, #1
    957e:	9a00      	ldr	r2, [sp, #0]
    9580:	a90a      	add	r1, sp, #40	; 0x28
    9582:	f7ff fc3b 	bl	8dfc <printk_putc>
D:\Users\lihaifeng\Desktop\嵌入式\实验考核题目\1\Flash_KL36_20201030\Debug/srcc/printf.c:638
					while (*sval)
    9586:	2000      	movs	r0, #0
    9588:	5638      	ldrsb	r0, [r7, r0]
    958a:	2800      	cmp	r0, #0
    958c:	d1f6      	bne.n	957c <printk+0x500>
D:\Users\lihaifeng\Desktop\嵌入式\实验考核题目\1\Flash_KL36_20201030\Debug/srcc/printf.c:641
				}
				if (IS_FLAG_MINUS(flags_used)) {
    958e:	2e00      	cmp	r6, #0
    9590:	d102      	bne.n	9598 <printk+0x51c>
D:\Users\lihaifeng\Desktop\嵌入式\实验考核题目\1\Flash_KL36_20201030\Debug/srcc/printf.c:619
			sval = (char *) va_arg(ap, char *);
    9592:	9b02      	ldr	r3, [sp, #8]
    9594:	4698      	mov	r8, r3
    9596:	e595      	b.n	90c4 <printk+0x48>
D:\Users\lihaifeng\Desktop\嵌入式\实验考核题目\1\Flash_KL36_20201030\Debug/srcc/printf.c:642
					printk_pad_space(vlen, field_width, &count, info);
    9598:	9b00      	ldr	r3, [sp, #0]
    959a:	aa0a      	add	r2, sp, #40	; 0x28
    959c:	0021      	movs	r1, r4
    959e:	9803      	ldr	r0, [sp, #12]
    95a0:	f7ff fc92 	bl	8ec8 <printk_pad_space>
D:\Users\lihaifeng\Desktop\嵌入式\实验考核题目\1\Flash_KL36_20201030\Debug/srcc/printf.c:619
			sval = (char *) va_arg(ap, char *);
    95a4:	9b02      	ldr	r3, [sp, #8]
    95a6:	4698      	mov	r8, r3
    95a8:	e58c      	b.n	90c4 <printk+0x48>
D:\Users\lihaifeng\Desktop\嵌入式\实验考核题目\1\Flash_KL36_20201030\Debug/srcc/printf.c:647
				}
			}
			break;
		case 'n':
			ivalp = (int *) va_arg(ap, int *);
    95aa:	4643      	mov	r3, r8
    95ac:	681b      	ldr	r3, [r3, #0]
D:\Users\lihaifeng\Desktop\嵌入式\实验考核题目\1\Flash_KL36_20201030\Debug/srcc/printf.c:648
			*ivalp = count;
    95ae:	9a0a      	ldr	r2, [sp, #40]	; 0x28
    95b0:	601a      	str	r2, [r3, #0]
D:\Users\lihaifeng\Desktop\嵌入式\实验考核题目\1\Flash_KL36_20201030\Debug/srcc/printf.c:647
			ivalp = (int *) va_arg(ap, int *);
    95b2:	2304      	movs	r3, #4
    95b4:	469c      	mov	ip, r3
    95b6:	44e0      	add	r8, ip
D:\Users\lihaifeng\Desktop\嵌入式\实验考核题目\1\Flash_KL36_20201030\Debug/srcc/printf.c:649
			break;
    95b8:	e584      	b.n	90c4 <printk+0x48>
D:\Users\lihaifeng\Desktop\嵌入式\实验考核题目\1\Flash_KL36_20201030\Debug/srcc/printf.c:652

		default:
			printk_putc(c, &count, info);
    95ba:	9a00      	ldr	r2, [sp, #0]
    95bc:	a90a      	add	r1, sp, #40	; 0x28
    95be:	f7ff fc1d 	bl	8dfc <printk_putc>
D:\Users\lihaifeng\Desktop\嵌入式\实验考核题目\1\Flash_KL36_20201030\Debug/srcc/printf.c:653
			break;
    95c2:	e57f      	b.n	90c4 <printk+0x48>
D:\Users\lihaifeng\Desktop\嵌入式\实验考核题目\1\Flash_KL36_20201030\Debug/srcc/printf.c:619
			sval = (char *) va_arg(ap, char *);
    95c4:	9b02      	ldr	r3, [sp, #8]
    95c6:	4698      	mov	r8, r3
    95c8:	e57c      	b.n	90c4 <printk+0x48>
D:\Users\lihaifeng\Desktop\嵌入式\实验考核题目\1\Flash_KL36_20201030\Debug/srcc/printf.c:657
		}
	}
	return count;
}
    95ca:	980a      	ldr	r0, [sp, #40]	; 0x28
    95cc:	b015      	add	sp, #84	; 0x54
    95ce:	bc3c      	pop	{r2, r3, r4, r5}
    95d0:	4690      	mov	r8, r2
    95d2:	4699      	mov	r9, r3
    95d4:	46a2      	mov	sl, r4
    95d6:	46ab      	mov	fp, r5
    95d8:	bdf0      	pop	{r4, r5, r6, r7, pc}
    95da:	46c0      	nop			; (mov r8, r8)

000095dc <myprintf>:
myprintf():
D:\Users\lihaifeng\Desktop\嵌入式\实验考核题目\1\Flash_KL36_20201030\Debug/srcc/printf.c:665
//参数说明：const char *:打印参数字符串：对输入的字符串进行解析并按格式输出
//       例如： printf("c=%c\n",c); 将c按char型进行输出
//函数返回：字符串长度
//======================================================================
int myprintf(const char *fmt, ...)
{
    95dc:	b40f      	push	{r0, r1, r2, r3}
    95de:	b500      	push	{lr}
    95e0:	b085      	sub	sp, #20
D:\Users\lihaifeng\Desktop\嵌入式\实验考核题目\1\Flash_KL36_20201030\Debug/srcc/printf.c:669
	char * ap;
	int rvalue;
	PRINTK_INFO info;
	info.dest = DEST_CONSOLE;  //宏定义为1
    95e2:	2301      	movs	r3, #1
    95e4:	9301      	str	r3, [sp, #4]
D:\Users\lihaifeng\Desktop\嵌入式\实验考核题目\1\Flash_KL36_20201030\Debug/srcc/printf.c:670
	info.func = &out_char;     //调用的串口输出函数
    95e6:	4b05      	ldr	r3, [pc, #20]	; (95fc <myprintf+0x20>)
    95e8:	9302      	str	r3, [sp, #8]
D:\Users\lihaifeng\Desktop\嵌入式\实验考核题目\1\Flash_KL36_20201030\Debug/srcc/printf.c:673
	//对ap 进行初始化，让它指向可变参数表里面的第一个参数
	va_start(ap, fmt); 
	rvalue = printk(&info, fmt, ap);
    95ea:	aa06      	add	r2, sp, #24
    95ec:	ca02      	ldmia	r2!, {r1}
    95ee:	a801      	add	r0, sp, #4
    95f0:	f7ff fd44 	bl	907c <printk>
D:\Users\lihaifeng\Desktop\嵌入式\实验考核题目\1\Flash_KL36_20201030\Debug/srcc/printf.c:678

	va_end(ap);

	return rvalue;
}
    95f4:	b005      	add	sp, #20
    95f6:	bc08      	pop	{r3}
    95f8:	b004      	add	sp, #16
    95fa:	4718      	bx	r3
    95fc:	00008ee7 	.word	0x00008ee7

00009600 <memcpy>:
memcpy():
    9600:	2300      	movs	r3, #0
    9602:	b510      	push	{r4, lr}
    9604:	429a      	cmp	r2, r3
    9606:	d100      	bne.n	960a <memcpy+0xa>
    9608:	bd10      	pop	{r4, pc}
    960a:	5ccc      	ldrb	r4, [r1, r3]
    960c:	54c4      	strb	r4, [r0, r3]
    960e:	3301      	adds	r3, #1
    9610:	e7f8      	b.n	9604 <memcpy+0x4>

00009612 <memset>:
memset():
    9612:	0003      	movs	r3, r0
    9614:	1812      	adds	r2, r2, r0
    9616:	4293      	cmp	r3, r2
    9618:	d100      	bne.n	961c <memset+0xa>
    961a:	4770      	bx	lr
    961c:	7019      	strb	r1, [r3, #0]
    961e:	3301      	adds	r3, #1
    9620:	e7f9      	b.n	9616 <memset+0x4>

00009622 <strncmp>:
strncmp():
    9622:	2300      	movs	r3, #0
    9624:	b530      	push	{r4, r5, lr}
    9626:	429a      	cmp	r2, r3
    9628:	d00a      	beq.n	9640 <strncmp+0x1e>
    962a:	3a01      	subs	r2, #1
    962c:	5cc4      	ldrb	r4, [r0, r3]
    962e:	5ccd      	ldrb	r5, [r1, r3]
    9630:	42ac      	cmp	r4, r5
    9632:	d104      	bne.n	963e <strncmp+0x1c>
    9634:	4293      	cmp	r3, r2
    9636:	d002      	beq.n	963e <strncmp+0x1c>
    9638:	3301      	adds	r3, #1
    963a:	2c00      	cmp	r4, #0
    963c:	d1f6      	bne.n	962c <strncmp+0xa>
    963e:	1b63      	subs	r3, r4, r5
    9640:	0018      	movs	r0, r3
    9642:	bd30      	pop	{r4, r5, pc}
    9644:	00007614 	.word	0x00007614
    9648:	00007516 	.word	0x00007516
    964c:	00007516 	.word	0x00007516
    9650:	00007834 	.word	0x00007834
    9654:	00007510 	.word	0x00007510
    9658:	00007510 	.word	0x00007510
    965c:	0000781c 	.word	0x0000781c
    9660:	00007834 	.word	0x00007834
    9664:	00007510 	.word	0x00007510
    9668:	0000781c 	.word	0x0000781c
    966c:	00007510 	.word	0x00007510
    9670:	00007834 	.word	0x00007834
    9674:	0000782a 	.word	0x0000782a
    9678:	0000782a 	.word	0x0000782a
    967c:	0000782a 	.word	0x0000782a
    9680:	00007838 	.word	0x00007838
    9684:	6572415b 	.word	0x6572415b
    9688:	756f7920 	.word	0x756f7920
    968c:	206e6120 	.word	0x206e6120
    9690:	61756d65 	.word	0x61756d65
    9694:	3f3f7472 	.word	0x3f3f7472
    9698:	0000005d 	.word	0x0000005d
    969c:	7365595b 	.word	0x7365595b
    96a0:	6120492c 	.word	0x6120492c
    96a4:	6e61206d 	.word	0x6e61206d
    96a8:	756d6520 	.word	0x756d6520
    96ac:	21747261 	.word	0x21747261
    96b0:	00005d21 	.word	0x00005d21
    96b4:	2d2d2d2d 	.word	0x2d2d2d2d
    96b8:	2d2d2d2d 	.word	0x2d2d2d2d
    96bc:	2d2d2d2d 	.word	0x2d2d2d2d
    96c0:	2d2d2d2d 	.word	0x2d2d2d2d
    96c4:	2d2d2d2d 	.word	0x2d2d2d2d
    96c8:	2d2d2d2d 	.word	0x2d2d2d2d
    96cc:	2d2d2d2d 	.word	0x2d2d2d2d
    96d0:	2d2d2d2d 	.word	0x2d2d2d2d
    96d4:	2d2d2d2d 	.word	0x2d2d2d2d
    96d8:	2d2d2d2d 	.word	0x2d2d2d2d
    96dc:	2d2d2d2d 	.word	0x2d2d2d2d
    96e0:	2d2d2d2d 	.word	0x2d2d2d2d
    96e4:	2d2d2d2d 	.word	0x2d2d2d2d
    96e8:	000a2d2d 	.word	0x000a2d2d
    96ec:	f9baf0bd 	.word	0xf9baf0bd
    96f0:	e1ccabc2 	.word	0xe1ccabc2
    96f4:	baa3beca 	.word	0xbaa3beca
    96f8:	53414c46 	.word	0x53414c46
    96fc:	c0b5ca48 	.word	0xc0b5ca48
    9700:	000a20fd 	.word	0x000a20fd
    9704:	d9a22020 	.word	0xd9a22020
    9708:	b5b6c020 	.word	0xb5b6c020
    970c:	cbc1c9c6 	.word	0xcbc1c9c6
    9710:	e4c52cb8 	.word	0xe4c52cb8
    9714:	6c46cfba 	.word	0x6c46cfba
    9718:	2d687361 	.word	0x2d687361
    971c:	61687343 	.word	0x61687343
    9720:	ccb37072 	.word	0xccb37072
    9724:	f8bdf2d0 	.word	0xf8bdf2d0
    9728:	c1b6d0d0 	.word	0xc1b6d0d0
    972c:	000ab4d0 	.word	0x000ab4d0
    9730:	daa22020 	.word	0xdaa22020
    9734:	b3c1b220 	.word	0xb3c1b220
    9738:	c1b62cfd 	.word	0xc1b62cfd
    973c:	d02ca1c8 	.word	0xd02ca1c8
    9740:	b8ebc8b4 	.word	0xb8ebc8b4
    9744:	c8bdcaf1 	.word	0xc8bdcaf1
    9748:	3ac2cfe7 	.word	0x3ac2cfe7
    974c:	00000a0d 	.word	0x00000a0d
    9750:	dba22020 	.word	0xdba22020
    9754:	20c1b220 	.word	0x20c1b220
    9758:	b3202020 	.word	0xb3202020
    975c:	a34520fd 	.word	0xa34520fd
    9760:	c8e4caba 	.word	0xc8e4caba
    9764:	c8fdd5eb 	.word	0xc8fdd5eb
    9768:	c9c4b5b7 	.word	0xc9c4b5b7
    976c:	baf8c7c8 	.word	0xbaf8c7c8
    9770:	b5aca3c5 	.word	0xb5aca3c5
    9774:	46f7bbe3 	.word	0x46f7bbe3
    9778:	6873616c 	.word	0x6873616c
    977c:	e2b2b4d0 	.word	0xe2b2b4d0
    9780:	b4b0d4ca 	.word	0xb4b0d4ca
    9784:	0a0da5c5 	.word	0x0a0da5c5
    9788:	00000000 	.word	0x00000000
    978c:	dca22020 	.word	0xdca22020
    9790:	20c1b620 	.word	0x20c1b620
    9794:	c8202020 	.word	0xc8202020
    9798:	a35220a1 	.word	0xa35220a1
    979c:	bcdfc2a8 	.word	0xbcdfc2a8
    97a0:	d6d8b5ad 	.word	0xd6d8b5ad
    97a4:	a3a9a3b7 	.word	0xa3a9a3b7
    97a8:	c8e4caba 	.word	0xc8e4caba
    97ac:	c8fdd5eb 	.word	0xc8fdd5eb
    97b0:	46c4b5b7 	.word	0x46c4b5b7
    97b4:	6873616c 	.word	0x6873616c
    97b8:	a2cfc5d0 	.word	0xa2cfc5d0
    97bc:	e3b5aca3 	.word	0xe3b5aca3
    97c0:	c1b6f7bb 	.word	0xc1b6f7bb
    97c4:	d4cae2b2 	.word	0xd4cae2b2
    97c8:	dfc2a8a3 	.word	0xdfc2a8a3
    97cc:	d8b5adbc 	.word	0xd8b5adbc
    97d0:	b4b0b7d6 	.word	0xb4b0b7d6
    97d4:	a9a3a5c5 	.word	0xa9a3a5c5
    97d8:	00000a0d 	.word	0x00000a0d
    97dc:	dda22020 	.word	0xdda22020
    97e0:	20c1b620 	.word	0x20c1b620
    97e4:	c8202020 	.word	0xc8202020
    97e8:	a34120a1 	.word	0xa34120a1
    97ec:	c0efcea8 	.word	0xc0efcea8
    97f0:	d6d8b5ed 	.word	0xd6d8b5ed
    97f4:	a3a9a3b7 	.word	0xa3a9a3b7
    97f8:	c8e4caba 	.word	0xc8e4caba
    97fc:	c8fdd5eb 	.word	0xc8fdd5eb
    9800:	46c4b5b7 	.word	0x46c4b5b7
    9804:	6873616c 	.word	0x6873616c
    9808:	a2cfc5d0 	.word	0xa2cfc5d0
    980c:	e3b5aca3 	.word	0xe3b5aca3
    9810:	c1b6f7bb 	.word	0xc1b6f7bb
    9814:	d4cae2b2 	.word	0xd4cae2b2
    9818:	efcea8a3 	.word	0xefcea8a3
    981c:	d8b5edc0 	.word	0xd8b5edc0
    9820:	b4b0b7d6 	.word	0xb4b0b7d6
    9824:	a9a3a5c5 	.word	0xa9a3a5c5
    9828:	00000a0d 	.word	0x00000a0d
    982c:	dea22020 	.word	0xdea22020
    9830:	20b4d020 	.word	0x20b4d020
    9834:	c8202020 	.word	0xc8202020
    9838:	a35720eb 	.word	0xa35720eb
    983c:	c8e4caba 	.word	0xc8e4caba
    9840:	c8fdd5eb 	.word	0xc8fdd5eb
    9844:	46c4b5b7 	.word	0x46c4b5b7
    9848:	6873616c 	.word	0x6873616c
    984c:	a2cfc5d0 	.word	0xa2cfc5d0
    9850:	e3b5aca3 	.word	0xe3b5aca3
    9854:	6c46f7bb 	.word	0x6c46f7bb
    9858:	d0687361 	.word	0xd0687361
    985c:	cae2b2b4 	.word	0xcae2b2b4
    9860:	c5b4b0d4 	.word	0xc5b4b0d4
    9864:	000a0da5 	.word	0x000a0da5
    9868:	dfa22020 	.word	0xdfa22020
    986c:	cdebc720 	.word	0xcdebc720
    9870:	b1f6b3cb 	.word	0xb1f6b3cb
    9874:	c3e7bdbe 	.word	0xc3e7bdbe
    9878:	d4aca3e6 	.word	0xd4aca3e6
    987c:	46d0d0cb 	.word	0x46d0d0cb
    9880:	6873616c 	.word	0x6873616c
    9884:	6873432d 	.word	0x6873432d
    9888:	b3707261 	.word	0xb3707261
    988c:	20f2d0cc 	.word	0x20f2d0cc
    9890:	000a2020 	.word	0x000a2020
    9894:	253a6425 	.word	0x253a6425
    9898:	64253a64 	.word	0x64253a64
    989c:	00000000 	.word	0x00000000
    98a0:	c6b5b6c0 	.word	0xc6b5b6c0
    98a4:	c1c1baa3 	.word	0xc1c1baa3
    98a8:	0000000a 	.word	0x0000000a
    98ac:	c6b5b6c0 	.word	0xc6b5b6c0
    98b0:	b5b0baa3 	.word	0xb5b0baa3
    98b4:	0000000a 	.word	0x0000000a

000098b8 <GPIO_ARR>:
    98b8:	400ff000 400ff040 400ff080 400ff0c0     ...@@..@...@...@
    98c8:	400ff100                                ...@

000098cc <PORT_ARR>:
    98cc:	40049000 4004a000 4004b000 4004c000     ...@...@...@...@
    98dc:	4004d000 33323130 37363534 42413938     ...@0123456789AB
    98ec:	46454443 30323032 36313730 00000000     CDEF20200716....
    98fc:	bea12020 72657355 becae1cc baa3bfa1       ..User........
    990c:	f8bdabbd 7355ebc8 c4b57265 6e69616d     ......User..main
    991c:	b4d62928 2e2ed0d0 000a0d2e              ()..........

00009928 <UART_ARR>:
    9928:	4006b000 4006c000 00008bc8 00008d3e     ...@...@....>...
    9938:	00008d3e 00008d3e 00008d3e 00008d3e     >...>...>...>...
    9948:	00008d3e 00008d3e 00008d3e 00008d3e     >...>...>...>...
    9958:	00008b30 00008d3e 00008d3e 00008d3e     0...>...>...>...
    9968:	00008c08 00008d3e 00008d3e 00008d3e     ....>...>...>...
    9978:	00008d3e 00008d3e 00008d3e 00008d3e     >...>...>...>...
    9988:	00008d3e 00008d3e 00008d3e 00008d3e     >...>...>...>...
    9998:	00008c6a 00008ad8 00008d3e 00008d3e     j.......>...>...
    99a8:	00008d3e 00008d3e 00008b8e 00008c30     >...>.......0...
    99b8:	72617561 00003f74 2c736559 6d612049     auart?..Yes,I am
    99c8:	206e6120 61756d65 21217472 00000000      an emuart!!....
    99d8:	2d4c4841 334c4b4d 34365a36 2e33562d     AHL-MKL36Z64-V3.
    99e8:	00202036 6c657320 65746365 72612064     6  . selected ar
    99f8:	69206165 6d652073 31797470 0000000a     ea is empty1....
    9a08:	6c657320 65746365 72612064 69206165      selected area i
    9a18:	6d652073 32797470 0000000a 74697257     s empty2....Writ
    9a28:	4b4f2065 0a21a1a3 00000000 74697257     e OK..!.....Writ
    9a38:	72652065 a3726f72 000a21a1 73617265     e error..!..eras
    9a48:	4b4f2065 0a21a1a3 00000000 73617265     e OK..!.....eras
    9a58:	72652065 a3726f72 000a21a1 0a206425     e error..!..%d .
    9a68:	00000000 6c657320 65746365 72612064     .... selected ar
    9a78:	69206165 6d652073 33797470 0000000a     ea is empty3....
    9a88:	31313231 31313131 00000a31 32323232     121111111...2222
    9a98:	0a323232 00000000 61666564 20746c75     222.....default 
    9aa8:	74736574 00000a21 00009108 00009120     test!....... ...
    9ab8:	00009120 00009114 00009120 00009120      ....... ... ...
    9ac8:	00009120 00009120 00009120 00009120      ... ... ... ...
    9ad8:	00009120 00009102 00009120 000090e2      ....... .......
    9ae8:	00009120 00009120 0000910e 00009392      ... ...........
    9af8:	000095ba 000095ba 000095ba 000095ba     ................
    9b08:	000095ba 000095ba 000095ba 000095ba     ................
    9b18:	000095ba 0000948e 00009518 000091d4     ................
    9b28:	000095ba 00009298 000095ba 000095ba     ................
    9b38:	000091d4 000095ba 000095ba 000095ba     ................
    9b48:	000095ba 000095aa 0000945c 000094a8     ........\.......
    9b58:	000095ba 000095ba 0000952c 000095ba     ........,.......
    9b68:	000094c2 000095ba 000095ba 00009392     ................

00009b78 <_init>:
_init():
    9b78:	b5f8      	push	{r3, r4, r5, r6, r7, lr}
    9b7a:	46c0      	nop			; (mov r8, r8)
    9b7c:	bcf8      	pop	{r3, r4, r5, r6, r7}
    9b7e:	bc08      	pop	{r3}
    9b80:	469e      	mov	lr, r3
    9b82:	4770      	bx	lr

00009b84 <_fini>:
_fini():
    9b84:	b5f8      	push	{r3, r4, r5, r6, r7, lr}
    9b86:	46c0      	nop			; (mov r8, r8)
    9b88:	bcf8      	pop	{r3, r4, r5, r6, r7}
    9b8a:	bc08      	pop	{r3}
    9b8c:	469e      	mov	lr, r3
    9b8e:	4770      	bx	lr
